(lp1
(S'hope'
F1.1799999999999999
tp2
a(S'thought'
F1.28
tp3
a(S'morals'
F1.3899999999999999
tp4
a(S'moral'
F1.3899999999999999
tp5
a(S'virtue'
F1.46
tp6
a(S'pride'
F1.49
tp7
a(S'confidence'
F1.52
tp8
a(S'mood'
F1.52
tp9
a(S'belief'
F1.55
tp10
a(S'knowledge'
F1.5600000000000001
tp11
a(S'loyalty'
F1.5600000000000001
tp12
a(S'how'
F1.5700000000000001
tp13
a(S'kindness'
F1.6299999999999999
tp14
a(S'anxiety'
F1.6299999999999999
tp15
a(S'obsession'
F1.6499999999999999
tp16
a(S'deceit'
F1.6599999999999999
tp17
a(S'essence'
F1.6599999999999999
tp18
a(S'passion'
F1.6599999999999999
tp19
a(S'prestige'
F1.73
tp20
a(S'greed'
F1.73
tp21
a(S'honor'
F1.75
tp22
a(S'blessing'
F1.75
tp23
a(S'jealousy'
F1.77
tp24
a(S'vanity'
F1.77
tp25
a(S'teach'
F1.77
tp26
a(S'tendency'
F1.78
tp27
a(S'memory'
F1.78
tp28
a(S'democracy'
F1.79
tp29
a(S'immoral'
F1.8100000000000001
tp30
a(S'notion'
F1.8200000000000001
tp31
a(S'intellect'
F1.8300000000000001
tp32
a(S'attitude'
F1.8300000000000001
tp33
a(S'sometimes'
F1.8300000000000001
tp34
a(S'possibility'
F1.8500000000000001
tp35
a(S'believe'
F1.8500000000000001
tp36
a(S'competence'
F1.8600000000000001
tp37
a(S'than'
F1.8600000000000001
tp38
a(S'spirit'
F1.8600000000000001
tp39
a(S'delight'
F1.8600000000000001
tp40
a(S'necessary'
F1.8700000000000001
tp41
a(S'soul'
F1.8700000000000001
tp42
a(S'nothing'
F1.8799999999999999
tp43
a(S'destiny'
F1.8799999999999999
tp44
a(S'nonsense'
F1.8999999999999999
tp45
a(S'empathy'
F1.8999999999999999
tp46
a(S'potential'
F1.8999999999999999
tp47
a(S'theory'
F1.8999999999999999
tp48
a(S'disgrace'
F1.9199999999999999
tp49
a(S'because'
F1.9199999999999999
tp50
a(S'ridiculous'
F1.9199999999999999
tp51
a(S'ego'
F1.9299999999999999
tp52
a(S'criterion'
F1.9299999999999999
tp53
a(S'bravery'
F1.9299999999999999
tp54
a(S'wonder'
F1.9399999999999999
tp55
a(S'better'
F1.9399999999999999
tp56
a(S'happiness'
F1.9399999999999999
tp57
a(S'forever'
F1.95
tp58
a(S'taboo'
F1.96
tp59
a(S'concept'
F1.97
tp60
a(S'curiosity'
F1.98
tp61
a(S'freedom'
F1.98
tp62
a(S'jeopardy'
p63
F2
tp64
a(S'issue'
F2
tp65
a(S'recognition'
F2
tp66
a(S'terrific'
F2.02
tp67
a(S'eternal'
F2.02
tp68
a(S'illusion'
F2.0299999999999998
tp69
a(S'fantasy'
F2.0299999999999998
tp70
a(S'ability'
F2.0299999999999998
tp71
a(S'objective'
F2.0299999999999998
tp72
a(S'obvious'
F2.04
tp73
a(S'meaning'
F2.0499999999999998
tp74
a(S'impulse'
F2.0800000000000001
tp75
a(S'happen'
F2.0800000000000001
tp76
a(S'insight'
F2.0800000000000001
tp77
a(S'please'
F2.0800000000000001
tp78
a(S'advice'
F2.0800000000000001
tp79
a(S'righteousness'
F2.0899999999999999
tp80
a(S'urgent'
F2.0899999999999999
tp81
a(S'pleasure'
F2.1000000000000001
tp82
a(S'there'
F2.1200000000000001
tp83
a(S'quality'
F2.1299999999999999
tp84
a(S'magic'
F2.1299999999999999
tp85
a(S'erect'
F2.1299999999999999
tp86
a(S'devil'
F2.1299999999999999
tp87
a(S'when'
F2.1499999999999999
tp88
a(S'means'
F2.1499999999999999
tp89
a(S'blame'
F2.1499999999999999
tp90
a(S'value'
F2.1499999999999999
tp91
a(S'conscience'
F2.1600000000000001
tp92
a(S'abuse'
F2.1699999999999999
tp93
a(S'false'
F2.1699999999999999
tp94
a(S'suppose'
F2.1699999999999999
tp95
a(S'discipline'
F2.1699999999999999
tp96
a(S'wonderful'
F2.1699999999999999
tp97
a(S'innocence'
F2.1699999999999999
tp98
a(S'haughty'
F2.1800000000000002
tp99
a(S'modest'
F2.1800000000000002
tp100
a(S'hostility'
p101
F2.1800000000000002
tp102
a(S'justice'
F2.1800000000000002
tp103
a(S'luck'
F2.1800000000000002
tp104
a(S'norm'
F2.1800000000000002
tp105
a(S'panic'
F2.1800000000000002
tp106
a(S'plus'
F2.1800000000000002
tp107
a(S'crazy'
F2.2000000000000002
tp108
a(S'method'
F2.2000000000000002
tp109
a(S'mastery'
F2.2000000000000002
tp110
a(S'seem'
F2.2000000000000002
tp111
a(S'unusual'
F2.2000000000000002
tp112
a(S'interest'
F2.2000000000000002
tp113
a(S'be'
F2.21
tp114
a(S'appeal'
F2.21
tp115
a(S'fame'
F2.21
tp116
a(S'effect'
F2.2200000000000002
tp117
a(S'known'
F2.2200000000000002
tp118
a(S'effort'
F2.2200000000000002
tp119
a(S'worst'
F2.23
tp120
a(S'excellent'
F2.23
tp121
a(S'ease'
F2.25
tp122
a(S'aura'
F2.25
tp123
a(S'impression'
F2.25
tp124
a(S'hypothesis'
F2.25
tp125
a(S'trouble'
F2.25
tp126
a(S'headache'
F2.2599999999999998
tp127
a(S'borrow'
F2.2599999999999998
tp128
a(S'vulnerable'
F2.27
tp129
a(S'humble'
F2.27
tp130
a(S'subtle'
F2.2799999999999998
tp131
a(S'evil'
F2.2799999999999998
tp132
a(S'misery'
F2.2799999999999998
tp133
a(S'who'
F2.2799999999999998
tp134
a(S'awful'
F2.2799999999999998
tp135
a(S'being'
F2.2799999999999998
tp136
a(S'loyal'
F2.2799999999999998
tp137
a(S'foresight'
F2.2799999999999998
tp138
a(S'weakness'
F2.29
tp139
a(S'opinion'
F2.29
tp140
a(S'comprehend'
F2.2999999999999998
tp141
a(S'intuition'
p142
F2.2999999999999998
tp143
a(S'humor'
F2.3100000000000001
tp144
a(S'disbelief'
F2.3100000000000001
tp145
a(S'holy'
F2.3199999999999998
tp146
a(S'duty'
F2.3199999999999998
tp147
a(S'decency'
F2.3300000000000001
tp148
a(S'feeling'
F2.3300000000000001
tp149
a(S'respect'
F2.3300000000000001
tp150
a(S'holiness'
p151
F2.3300000000000001
tp152
a(S'social'
F2.3300000000000001
tp153
a(S'after'
F2.3300000000000001
tp154
a(S'perception'
F2.3300000000000001
tp155
a(S'regret'
F2.3300000000000001
tp156
a(S'understand'
F2.3300000000000001
tp157
a(S'concentrate'
F2.3399999999999999
tp158
a(S'convince'
F2.3399999999999999
tp159
a(S'envy'
F2.3399999999999999
tp160
a(S'extreme'
F2.3399999999999999
tp161
a(S'bring'
F2.3500000000000001
tp162
a(S'wit'
F2.3500000000000001
tp163
a(S'average'
F2.3500000000000001
tp164
a(S'future'
F2.3500000000000001
tp165
a(S'forgive'
F2.3599999999999999
tp166
a(S'for'
F2.3599999999999999
tp167
a(S'system'
F2.3599999999999999
tp168
a(S'intelligence'
F2.3599999999999999
tp169
a(S'unjust'
F2.3599999999999999
tp170
a(S'depressed'
F2.3599999999999999
tp171
a(S'sly'
F2.3700000000000001
tp172
a(S'foolish'
F2.3799999999999999
tp173
a(S'much'
F2.3799999999999999
tp174
a(S'beware'
F2.3799999999999999
tp175
a(S'normal'
F2.3799999999999999
tp176
a(S'damn'
F2.3799999999999999
tp177
a(S'difficult'
F2.3799999999999999
tp178
a(S'begin'
F2.3799999999999999
tp179
a(S'important'
F2.3799999999999999
tp180
a(S'usual'
F2.3900000000000001
tp181
a(S'mature'
F2.3900000000000001
tp182
a(S'weird'
F2.3900000000000001
tp183
a(S'routine'
F2.3900000000000001
tp184
a(S'inquire'
F2.3999999999999999
tp185
a(S'secure'
F2.3999999999999999
tp186
a(S'emotion'
F2.3999999999999999
tp187
a(S'vanish'
F2.3999999999999999
tp188
a(S'since'
F2.3999999999999999
tp189
a(S'start'
F2.3999999999999999
tp190
a(S'might'
F2.3999999999999999
tp191
a(S'purpose'
F2.3999999999999999
tp192
a(S'complete'
F2.3999999999999999
tp193
a(S'out'
F2.3999999999999999
tp194
a(S'subtlety'
F2.3999999999999999
tp195
a(S'capacity'
F2.4100000000000001
tp196
a(S'okay'
F2.4100000000000001
tp197
a(S'integrity'
F2.4100000000000001
tp198
a(S'capability'
F2.4199999999999999
tp199
a(S'possess'
F2.4199999999999999
tp200
a(S'daring'
F2.4199999999999999
tp201
a(S'instant'
F2.4300000000000002
tp202
a(S'imagine'
F2.4300000000000002
tp203
a(S'distinct'
F2.4300000000000002
tp204
a(S'truthful'
F2.4300000000000002
tp205
a(S'beginning'
F2.4300000000000002
tp206
a(S'same'
F2.4399999999999999
tp207
a(S'patience'
F2.4399999999999999
tp208
a(S'have'
F2.4399999999999999
tp209
a(S'anxious'
F2.4399999999999999
tp210
a(S'strange'
F2.4500000000000002
tp211
a(S'always'
F2.4500000000000002
tp212
a(S'disallow'
F2.4500000000000002
tp213
a(S'fun'
F2.4500000000000002
tp214
a(S'expensive'
F2.4500000000000002
tp215
a(S'trauma'
F2.46
tp216
a(S'adventurous'
F2.46
tp217
a(S'around'
F2.46
tp218
a(S'hectic'
F2.4700000000000002
tp219
a(S'proper'
F2.4700000000000002
tp220
a(S'expression'
F2.48
tp221
a(S'similar'
F2.48
tp222
a(S'reminiscence'
F2.48
tp223
a(S'logic'
F2.48
tp224
a(S'difficulty'
F2.48
tp225
a(S'ask'
F2.48
tp226
a(S'guilty'
F2.4900000000000002
tp227
a(S'where'
F2.4900000000000002
tp228
a(S'reprimand'
F2.4900000000000002
tp229
a(S'never'
F2.4900000000000002
tp230
a(S'friendliness'
F2.5
tp231
a(S'challenge'
F2.5
tp232
a(S'preference'
F2.5
tp233
a(S'try'
F2.5
tp234
a(S'phantom'
F2.5
tp235
a(S'debate'
F2.5
tp236
a(S'attention'
F2.5
tp237
a(S'chaos'
F2.5
tp238
a(S'courage'
F2.5099999999999998
tp239
a(S'vary'
F2.5099999999999998
tp240
a(S'common'
F2.5099999999999998
tp241
a(S'before'
F2.52
tp242
a(S'lonely'
F2.5299999999999998
tp243
a(S'medium'
F2.5299999999999998
tp244
a(S'confusion'
F2.5299999999999998
tp245
a(S'away'
F2.5299999999999998
tp246
a(S'good'
F2.5299999999999998
tp247
a(S'fade'
F2.5299999999999998
tp248
a(S'forget'
F2.5299999999999998
tp249
a(S'just'
F2.5299999999999998
tp250
a(S'complex'
F2.5299999999999998
tp251
a(S'late'
F2.5299999999999998
tp252
a(S'tardy'
F2.5299999999999998
tp253
a(S'valuable'
F2.5299999999999998
tp254
a(S'specific'
F2.5299999999999998
tp255
a(S'compulsion'
F2.54
tp256
a(S'soon'
F2.54
tp257
a(S'going'
F2.54
tp258
a(S'prove'
F2.54
tp259
a(S'ideal'
F2.54
tp260
a(S'repentance'
F2.54
tp261
a(S'early'
F2.54
tp262
a(S'remorse'
F2.5499999999999998
tp263
a(S'regular'
F2.5499999999999998
tp264
a(S'on'
F2.5499999999999998
tp265
a(S'differ'
F2.5499999999999998
tp266
a(S'denial'
F2.5499999999999998
tp267
a(S'libel'
F2.5600000000000001
tp268
a(S'dominate'
F2.5600000000000001
tp269
a(S'diminish'
F2.5600000000000001
tp270
a(S'usurp'
F2.5600000000000001
tp271
a(S'gravity'
F2.5600000000000001
tp272
a(S'generous'
F2.5600000000000001
tp273
a(S'hallucination'
F2.5600000000000001
tp274
a(S'process'
F2.5600000000000001
tp275
a(S'failure'
F2.5600000000000001
tp276
a(S'less'
F2.5600000000000001
tp277
a(S'demon'
F2.5600000000000001
tp278
a(S'persuade'
F2.5699999999999998
tp279
a(S'silly'
F2.5699999999999998
tp280
a(S'task'
F2.5800000000000001
tp281
a(S'option'
F2.5800000000000001
tp282
a(S'express'
F2.5800000000000001
tp283
a(S'tangent'
F2.5800000000000001
tp284
a(S'rationalize'
F2.5800000000000001
tp285
a(S'degrade'
F2.5800000000000001
tp286
a(S'tragedy'
F2.5899999999999999
tp287
a(S'standard'
F2.5899999999999999
tp288
a(S'politics'
F2.5899999999999999
tp289
a(S'scary'
F2.5899999999999999
tp290
a(S'esteem'
F2.6000000000000001
tp291
a(S'wrong'
F2.6000000000000001
tp292
a(S'mind'
F2.6000000000000001
tp293
a(S'sin'
F2.6000000000000001
tp294
a(S'apology'
F2.6000000000000001
tp295
a(S'dilemma'
F2.6000000000000001
tp296
a(S'without'
F2.6000000000000001
tp297
a(S'explain'
F2.6000000000000001
tp298
a(S'infinite'
F2.6000000000000001
tp299
a(S'discreet'
F2.6000000000000001
tp300
a(S'odd'
F2.6000000000000001
tp301
a(S'sorrow'
F2.6099999999999999
tp302
a(S'personality'
F2.6099999999999999
tp303
a(S'wise'
F2.6099999999999999
tp304
a(S'awareness'
F2.6099999999999999
tp305
a(S'hardy'
F2.6099999999999999
tp306
a(S'with'
F2.6099999999999999
tp307
a(S'way'
F2.6099999999999999
tp308
a(S'dishonest'
F2.6200000000000001
tp309
a(S'elect'
F2.6200000000000001
tp310
a(S'authority'
F2.6200000000000001
tp311
a(S'nasty'
F2.6299999999999999
tp312
a(S'why'
F2.6299999999999999
tp313
a(S'all'
F2.6299999999999999
tp314
a(S'serious'
F2.6299999999999999
tp315
a(S'deny'
F2.6299999999999999
tp316
a(S'offense'
F2.6299999999999999
tp317
a(S'heritage'
F2.6299999999999999
tp318
a(S'earnestness'
F2.6299999999999999
tp319
a(S'opportunity'
F2.6299999999999999
tp320
a(S'haunt'
F2.6299999999999999
tp321
a(S'fright'
F2.6299999999999999
tp322
a(S'thanks'
F2.6299999999999999
tp323
a(S'folly'
F2.6299999999999999
tp324
a(S'terrible'
F2.6299999999999999
tp325
a(S'exact'
F2.6299999999999999
tp326
a(S'worth'
F2.6299999999999999
tp327
a(S'allow'
F2.6400000000000001
tp328
a(S'decide'
F2.6400000000000001
tp329
a(S'excise'
F2.6400000000000001
tp330
a(S'legend'
F2.6499999999999999
tp331
a(S'obey'
F2.6499999999999999
tp332
a(S'will'
F2.6499999999999999
tp333
a(S'judgment'
F2.6499999999999999
tp334
a(S'boring'
F2.6499999999999999
tp335
a(S'pun'
F2.6499999999999999
tp336
a(S'least'
F2.6499999999999999
tp337
a(S'true'
F2.6499999999999999
tp338
a(S'done'
F2.6499999999999999
tp339
a(S'fury'
F2.6499999999999999
tp340
a(S'enjoy'
F2.6600000000000001
tp341
a(S'become'
F2.6600000000000001
tp342
a(S'wish'
F2.6600000000000001
tp343
a(S'suggestion'
F2.6699999999999999
tp344
a(S'best'
F2.6699999999999999
tp345
a(S'philosophy'
F2.6699999999999999
tp346
a(S'many'
F2.6699999999999999
tp347
a(S'appear'
F2.6699999999999999
tp348
a(S'remain'
F2.6699999999999999
tp349
a(S'vague'
F2.6800000000000002
tp350
a(S'sorry'
F2.6800000000000002
tp351
a(S'avoid'
F2.6800000000000002
tp352
a(S'something'
F2.6800000000000002
tp353
a(S'pure'
F2.6800000000000002
tp354
a(S'disappear'
F2.6800000000000002
tp355
a(S'not'
F2.6800000000000002
tp356
a(S'cheap'
F2.6800000000000002
tp357
a(S'moment'
F2.6800000000000002
tp358
a(S'pretend'
F2.6800000000000002
tp359
a(S'control'
F2.6800000000000002
tp360
a(S'equal'
F2.6800000000000002
tp361
a(S'desire'
F2.6899999999999999
tp362
a(S'honesty'
F2.6899999999999999
tp363
a(S'mistake'
F2.7000000000000002
tp364
a(S'predict'
F2.7000000000000002
tp365
a(S'risk'
F2.7000000000000002
tp366
a(S'perjury'
F2.7000000000000002
tp367
a(S'through'
F2.7000000000000002
tp368
a(S'temper'
F2.7000000000000002
tp369
a(S'know'
F2.7000000000000002
tp370
a(S'bargain'
F2.71
tp371
a(S'faith'
F2.71
tp372
a(S'chance'
F2.71
tp373
a(S'condition'
F2.71
tp374
a(S'restore'
F2.71
tp375
a(S'other'
F2.71
tp376
a(S'do'
F2.7200000000000002
tp377
a(S'truth'
F2.7200000000000002
tp378
a(S'fraud'
F2.7200000000000002
tp379
a(S'limit'
F2.73
tp380
a(S'gross'
F2.73
tp381
a(S'context'
F2.73
tp382
a(S'honest'
F2.7400000000000002
tp383
a(S'recommend'
F2.7400000000000002
tp384
a(S'frustration'
F2.7400000000000002
tp385
a(S'dislike'
F2.75
tp386
a(S'different'
F2.75
tp387
a(S'romance'
F2.75
tp388
a(S'minus'
F2.75
tp389
a(S'even'
F2.75
tp390
a(S'estimate'
F2.75
tp391
a(S'appraise'
F2.75
tp392
a(S'difference'
F2.75
tp393
a(S'nice'
F2.75
tp394
a(S'fate'
F2.75
tp395
a(S'heaven'
F2.75
tp396
a(S'worse'
F2.75
tp397
a(S'genius'
F2.7599999999999998
tp398
a(S'brave'
F2.7599999999999998
tp399
a(S'situation'
F2.7599999999999998
tp400
a(S'quest'
F2.7599999999999998
tp401
a(S'positive'
F2.7599999999999998
tp402
a(S'put'
F2.77
tp403
a(S'more'
F2.77
tp404
a(S'sure'
F2.77
tp405
a(S'expense'
F2.77
tp406
a(S'hurry'
F2.77
tp407
a(S'off'
F2.77
tp408
a(S'ponder'
F2.7799999999999998
tp409
a(S'accomplish'
F2.7799999999999998
tp410
a(S'revenge'
F2.7799999999999998
tp411
a(S'real'
F2.7799999999999998
tp412
a(S'fancy'
F2.7799999999999998
tp413
a(S'lenient'
F2.7799999999999998
tp414
a(S'finish'
F2.7799999999999998
tp415
a(S'rule'
F2.79
tp416
a(S'relation'
F2.79
tp417
a(S'last'
F2.79
tp418
a(S'some'
F2.79
tp419
a(S'over'
F2.7999999999999998
tp420
a(S'outcome'
F2.7999999999999998
tp421
a(S'lend'
F2.7999999999999998
tp422
a(S'notify'
F2.7999999999999998
tp423
a(S'observe'
F2.7999999999999998
tp424
a(S'remember'
F2.7999999999999998
tp425
a(S'worry'
F2.7999999999999998
tp426
a(S'easy'
F2.8100000000000001
tp427
a(S'pass'
F2.8100000000000001
tp428
a(S'spree'
F2.8100000000000001
tp429
a(S'here'
F2.8100000000000001
tp430
a(S'intake'
p431
F2.8100000000000001
tp432
a(S'crisis'
F2.8100000000000001
tp433
a(S'originate'
F2.8100000000000001
tp434
a(S'help'
F2.8199999999999998
tp435
a(S'like'
F2.8199999999999998
tp436
a(S'severe'
F2.8199999999999998
tp437
a(S'reject'
F2.8199999999999998
tp438
a(S'development'
F2.8199999999999998
tp439
a(S'topic'
F2.8199999999999998
tp440
a(S'range'
F2.8300000000000001
tp441
a(S'big'
F2.8300000000000001
tp442
a(S'alike'
F2.8300000000000001
tp443
a(S'middle'
F2.8300000000000001
tp444
a(S'despair'
F2.8399999999999999
tp445
a(S'pious'
F2.8399999999999999
tp446
a(S'none'
F2.8399999999999999
tp447
a(S'justify'
F2.8500000000000001
tp448
a(S'error'
F2.8500000000000001
tp449
a(S'correct'
F2.8500000000000001
tp450
a(S'service'
F2.8500000000000001
tp451
a(S'analyze'
F2.8500000000000001
tp452
a(S'past'
F2.8599999999999999
tp453
a(S'subtract'
F2.8599999999999999
tp454
a(S'acknowledge'
F2.8599999999999999
tp455
a(S'violent'
F2.8599999999999999
tp456
a(S'get'
F2.8599999999999999
tp457
a(S'instance'
F2.8700000000000001
tp458
a(S'fault'
F2.8700000000000001
tp459
a(S'genuine'
F2.8700000000000001
tp460
a(S'dare'
F2.8700000000000001
tp461
a(S'idea'
F2.8700000000000001
tp462
a(S'win'
F2.8799999999999999
tp463
a(S'plenty'
F2.8799999999999999
tp464
a(S'fake'
F2.8799999999999999
tp465
a(S'use'
F2.8799999999999999
tp466
a(S'join'
F2.8799999999999999
tp467
a(S'success'
F2.8799999999999999
tp468
a(S'talent'
F2.8799999999999999
tp469
a(S'obtain'
F2.8799999999999999
tp470
a(S'together'
F2.8799999999999999
tp471
a(S'slow'
F2.8900000000000001
tp472
a(S'make'
F2.8900000000000001
tp473
a(S'what'
F2.8900000000000001
tp474
a(S'discourage'
F2.8900000000000001
tp475
a(S'main'
F2.8900000000000001
tp476
a(S'cause'
F2.8999999999999999
tp477
a(S'mischief'
F2.8999999999999999
tp478
a(S'function'
F2.8999999999999999
tp479
a(S'personal'
F2.8999999999999999
tp480
a(S'focus'
F2.8999999999999999
tp481
a(S'pretty'
F2.8999999999999999
tp482
a(S'harm'
F2.8999999999999999
tp483
a(S'intimate'
F2.8999999999999999
tp484
a(S'thrift'
F2.8999999999999999
tp485
a(S'renounce'
F2.8999999999999999
tp486
a(S'ending'
F2.8999999999999999
tp487
a(S'strength'
F2.8999999999999999
tp488
a(S'able'
F2.9100000000000001
tp489
a(S'ever'
F2.9100000000000001
tp490
a(S'stingy'
F2.9100000000000001
tp491
a(S'violation'
F2.9199999999999999
tp492
a(S'owe'
F2.9199999999999999
tp493
a(S'admire'
F2.9199999999999999
tp494
a(S'attempt'
F2.9199999999999999
tp495
a(S'adjective'
F2.9199999999999999
tp496
a(S'guilt'
F2.9199999999999999
tp497
a(S'force'
F2.9199999999999999
tp498
a(S'fast'
F2.9300000000000002
tp499
a(S'reaction'
F2.9300000000000002
tp500
a(S'stop'
F2.9300000000000002
tp501
a(S'pledge'
F2.9300000000000002
tp502
a(S'prohibit'
F2.9300000000000002
tp503
a(S'hour'
F2.9300000000000002
tp504
a(S'manner'
F2.9300000000000002
tp505
a(S'noisy'
F2.9300000000000002
tp506
a(S'agreement'
F2.9300000000000002
tp507
a(S'victory'
F2.9300000000000002
tp508
a(S'scarce'
F2.9300000000000002
tp509
a(S'must'
F2.9300000000000002
tp510
a(S'hours'
F2.9300000000000002
tp511
a(S'analysis'
F2.9399999999999999
tp512
a(S'image'
F2.9500000000000002
tp513
a(S'eternity'
F2.9500000000000002
tp514
a(S'inertia'
F2.9500000000000002
tp515
a(S'rude'
F2.9500000000000002
tp516
a(S'pronoun'
F2.9500000000000002
tp517
a(S'add'
F2.9500000000000002
tp518
a(S'opposite'
F2.9500000000000002
tp519
a(S'scold'
F2.9500000000000002
tp520
a(S'lose'
F2.9500000000000002
tp521
a(S'want'
F2.9500000000000002
tp522
a(S'descent'
F2.9500000000000002
tp523
a(S'protect'
F2.9500000000000002
tp524
a(S'unique'
F2.96
tp525
a(S'pause'
F2.96
tp526
a(S'beg'
F2.96
tp527
a(S'choice'
F2.96
tp528
a(S'condemn'
F2.9700000000000002
tp529
a(S'retain'
F2.9700000000000002
tp530
a(S'simple'
F2.98
tp531
a(S'peace'
F2.98
tp532
a(S'urge'
F2.98
tp533
a(S'pardon'
F2.98
tp534
a(S'con'
F2.98
tp535
a(S'kind'
F2.98
tp536
a(S'education'
F2.98
tp537
a(S'receive'
F2.98
tp538
a(S'eager'
F2.98
tp539
a(S'far'
F2.98
tp540
a(S'custom'
F2.9900000000000002
tp541
a(S'spoil'
F3
tp542
a(S'action'
F3
tp543
a(S'fiction'
F3
tp544
a(S'response'
F3
tp545
a(S'imagination'
F3
tp546
a(S'quit'
F3
tp547
a(S'demand'
F3
tp548
a(S'powerful'
F3
tp549
a(S'choose'
F3
tp550
a(S'poor'
F3
tp551
a(S'smart'
F3
tp552
a(S'intelligent'
F3
tp553
a(S'lack'
F3
tp554
a(S'support'
F3
tp555
a(S'bad'
F3
tp556
a(S'succeed'
F3
tp557
a(S'apart'
F3
tp558
a(S'casket'
F3
tp559
a(S'horror'
F3.02
tp560
a(S'now'
F3.02
tp561
a(S'united'
F3.02
tp562
a(S'sense'
F3.02
tp563
a(S'elegant'
F3.02
tp564
a(S'gone'
F3.02
tp565
a(S'detergent'
F3.02
tp566
a(S'few'
F3.02
tp567
a(S'wasted'
F3.02
tp568
a(S'tell'
F3.02
tp569
a(S'unite'
F3.02
tp570
a(S'ridicule'
F3.02
tp571
a(S'tidy'
F3.0299999999999998
tp572
a(S'dream'
F3.0299999999999998
tp573
a(S'history'
F3.0299999999999998
tp574
a(S'great'
F3.0299999999999998
tp575
a(S'magnitude'
F3.0299999999999998
tp576
a(S'loving'
F3.04
tp577
a(S'vain'
F3.04
tp578
a(S'tired'
F3.04
tp579
a(S'mad'
F3.04
tp580
a(S'sincere'
F3.04
tp581
a(S'part'
F3.0499999999999998
tp582
a(S'famous'
F3.0499999999999998
tp583
a(S'span'
F3.0499999999999998
tp584
a(S'truce'
F3.0499999999999998
tp585
a(S'set'
F3.0499999999999998
tp586
a(S'own'
F3.0499999999999998
tp587
a(S'scheme'
F3.0499999999999998
tp588
a(S'excuse'
F3.0499999999999998
tp589
a(S'discovery'
F3.0600000000000001
tp590
a(S'change'
F3.0600000000000001
tp591
a(S'flow'
F3.0699999999999998
tp592
a(S'first'
F3.0699999999999998
tp593
a(S'save'
F3.0699999999999998
tp594
a(S'warn'
F3.0699999999999998
tp595
a(S'inferior'
F3.0699999999999998
tp596
a(S'competition'
F3.0800000000000001
tp597
a(S'valor'
F3.0800000000000001
tp598
a(S'fragile'
F3.0800000000000001
tp599
a(S'plead'
F3.0800000000000001
tp600
a(S'feud'
F3.0800000000000001
tp601
a(S'fact'
F3.0800000000000001
tp602
a(S'reply'
F3.0800000000000001
tp603
a(S'send'
F3.0800000000000001
tp604
a(S'catholic'
F3.0800000000000001
tp605
a(S'dull'
F3.0800000000000001
tp606
a(S'diligence'
F3.0800000000000001
tp607
a(S'ignore'
F3.0800000000000001
tp608
a(S'ruin'
F3.0800000000000001
tp609
a(S'mean'
F3.0899999999999999
tp610
a(S'silence'
F3.0899999999999999
tp611
a(S'wait'
F3.0899999999999999
tp612
a(S'tradition'
F3.0899999999999999
tp613
a(S'wary'
F3.0899999999999999
tp614
a(S'leave'
F3.1000000000000001
tp615
a(S'cute'
F3.1000000000000001
tp616
a(S'solution'
F3.1000000000000001
tp617
a(S'revival'
F3.1000000000000001
tp618
a(S'fix'
F3.1000000000000001
tp619
a(S'tact'
F3.1000000000000001
tp620
a(S'neat'
F3.1000000000000001
tp621
a(S'despise'
F3.1000000000000001
tp622
a(S'domain'
F3.1000000000000001
tp623
a(S'need'
F3.1000000000000001
tp624
a(S'grace'
F3.1000000000000001
tp625
a(S'used'
F3.1099999999999999
tp626
a(S'once'
F3.1099999999999999
tp627
a(S'follow'
F3.1099999999999999
tp628
a(S'conquest'
F3.1099999999999999
tp629
a(S'sympathetic'
F3.1200000000000001
tp630
a(S'blank'
F3.1200000000000001
tp631
a(S'reflection'
F3.1200000000000001
tp632
a(S'tribute'
F3.1200000000000001
tp633
a(S'wander'
F3.1200000000000001
tp634
a(S'ancient'
F3.1200000000000001
tp635
a(S'trend'
F3.1200000000000001
tp636
a(S'ascent'
F3.1299999999999999
tp637
a(S'distant'
F3.1299999999999999
tp638
a(S'wisdom'
F3.1299999999999999
tp639
a(S'announce'
F3.1299999999999999
tp640
a(S'large'
F3.1400000000000001
tp641
a(S'young'
F3.1400000000000001
tp642
a(S'mirage'
F3.1400000000000001
tp643
a(S'out fox'
F3.1400000000000001
tp644
a(S'glad'
F3.1400000000000001
tp645
a(S'no'
F3.1400000000000001
tp646
a(S'recall'
F3.1499999999999999
tp647
a(S'financial'
F3.1499999999999999
tp648
a(S'under'
F3.1499999999999999
tp649
a(S'organize'
F3.1499999999999999
tp650
a(S'achievement'
F3.1499999999999999
tp651
a(S'violence'
F3.1499999999999999
tp652
a(S'enter'
F3.1499999999999999
tp653
a(S'caution'
F3.1499999999999999
tp654
a(S'lust'
F3.1600000000000001
tp655
a(S'drop'
F3.1600000000000001
tp656
a(S'rate'
F3.1600000000000001
tp657
a(S'end'
F3.1600000000000001
tp658
a(S'feel'
F3.1600000000000001
tp659
a(S'obscure'
F3.1600000000000001
tp660
a(S'blackmail'
F3.1600000000000001
tp661
a(S'graceful'
F3.1699999999999999
tp662
a(S'raise'
F3.1699999999999999
tp663
a(S'poverty'
F3.1699999999999999
tp664
a(S'verb'
F3.1699999999999999
tp665
a(S'amuse'
F3.1699999999999999
tp666
a(S'most'
F3.1699999999999999
tp667
a(S'offend'
F3.1699999999999999
tp668
a(S'lay'
F3.1800000000000002
tp669
a(S'result'
F3.1800000000000002
tp670
a(S'give'
F3.1800000000000002
tp671
a(S'mimic'
F3.1800000000000002
tp672
a(S'vow'
F3.1800000000000002
tp673
a(S'bored'
F3.1800000000000002
tp674
a(S'gentle'
F3.1800000000000002
tp675
a(S'stay'
F3.1800000000000002
tp676
a(S'myth'
F3.1800000000000002
tp677
a(S'low'
F3.1800000000000002
tp678
a(S'upset'
F3.1800000000000002
tp679
a(S'direction'
F3.1899999999999999
tp680
a(S'threat'
F3.1899999999999999
tp681
a(S'amp'
F3.1899999999999999
tp682
a(S'directions'
F3.1899999999999999
tp683
a(S'shallow'
F3.1899999999999999
tp684
a(S'month'
F3.2000000000000002
tp685
a(S'take'
F3.2000000000000002
tp686
a(S'attend'
F3.2000000000000002
tp687
a(S'succor'
F3.2000000000000002
tp688
a(S'fine'
F3.2000000000000002
tp689
a(S'royal'
F3.2000000000000002
tp690
a(S'gain'
F3.21
tp691
a(S'ashamed'
F3.21
tp692
a(S'rejoice'
F3.21
tp693
a(S'ambition'
F3.21
tp694
a(S'refrain'
F3.21
tp695
a(S'deal'
F3.21
tp696
a(S'resistance'
F3.21
tp697
a(S'punish'
F3.21
tp698
a(S'busy'
F3.21
tp699
a(S'proud'
F3.2200000000000002
tp700
a(S'fresh'
F3.2200000000000002
tp701
a(S'fear'
F3.2200000000000002
tp702
a(S'slim'
F3.2200000000000002
tp703
a(S'spread'
F3.2200000000000002
tp704
a(S'research'
F3.2200000000000002
tp705
a(S'flunk'
F3.23
tp706
a(S'victor'
F3.23
tp707
a(S'poise'
F3.23
tp708
a(S'argue'
F3.23
tp709
a(S'ouch'
F3.23
tp710
a(S'rare'
F3.23
tp711
a(S'funny'
F3.23
tp712
a(S'fail'
F3.23
tp713
a(S'rage'
F3.23
tp714
a(S'down'
F3.23
tp715
a(S'rumor'
F3.23
tp716
a(S'strong'
F3.2400000000000002
tp717
a(S'prank'
F3.2400000000000002
tp718
a(S'skill'
F3.2400000000000002
tp719
a(S'loose'
F3.2400000000000002
tp720
a(S'free'
F3.2400000000000002
tp721
a(S'prejudice'
F3.2400000000000002
tp722
a(S'close'
F3.2400000000000002
tp723
a(S'portray'
F3.25
tp724
a(S'emergency'
F3.25
tp725
a(S'conclusion'
F3.25
tp726
a(S'distance'
F3.25
tp727
a(S'cheat'
F3.25
tp728
a(S'welfare'
F3.25
tp729
a(S'awkward'
F3.25
tp730
a(S'perish'
F3.25
tp731
a(S'compliment'
F3.25
tp732
a(S'decision'
F3.25
tp733
a(S'explanation'
F3.25
tp734
a(S'discover'
F3.25
tp735
a(S'stress'
F3.2599999999999998
tp736
a(S'mild'
F3.2599999999999998
tp737
a(S'swoon'
F3.2599999999999998
tp738
a(S'gloomy'
F3.27
tp739
a(S'guess'
F3.27
tp740
a(S'disappoint'
F3.27
tp741
a(S'flexible'
F3.27
tp742
a(S'major'
F3.27
tp743
a(S'tame'
F3.27
tp744
a(S'repulsive'
F3.2799999999999998
tp745
a(S'bet'
F3.2799999999999998
tp746
a(S'union'
F3.2799999999999998
tp747
a(S'unhappy'
F3.2799999999999998
tp748
a(S'wealth'
F3.2799999999999998
tp749
a(S'rob'
F3.29
tp750
a(S'near'
F3.29
tp751
a(S'tranquil'
F3.2999999999999998
tp752
a(S'nervous'
F3.2999999999999998
tp753
a(S'messy'
F3.2999999999999998
tp754
a(S'keep'
F3.2999999999999998
tp755
a(S'division'
F3.2999999999999998
tp756
a(S'polite'
F3.2999999999999998
tp757
a(S'gamble'
F3.2999999999999998
tp758
a(S'pity'
F3.2999999999999998
tp759
a(S'behavior'
F3.3100000000000001
tp760
a(S'swift'
F3.3100000000000001
tp761
a(S'beauty'
F3.3100000000000001
tp762
a(S'incorrect'
F3.3100000000000001
tp763
a(S'position'
F3.3100000000000001
tp764
a(S'facts'
F3.3100000000000001
tp765
a(S'velocity'
F3.3199999999999998
tp766
a(S'impact'
F3.3199999999999998
tp767
a(S'afraid'
F3.3199999999999998
tp768
a(S'theme'
F3.3199999999999998
tp769
a(S'mister'
F3.3199999999999998
tp770
a(S'fortune'
F3.3199999999999998
tp771
a(S'security'
F3.3199999999999998
tp772
a(S'quantity'
F3.3199999999999998
tp773
a(S'examine'
F3.3199999999999998
tp774
a(S'power'
F3.3199999999999998
tp775
a(S'operate'
F3.3300000000000001
tp776
a(S'healthy'
F3.3300000000000001
tp777
a(S'geometry'
F3.3300000000000001
tp778
a(S'go'
F3.3300000000000001
tp779
a(S'cost'
F3.3300000000000001
tp780
a(S'heights'
p781
F3.3300000000000001
tp782
a(S'care'
F3.3300000000000001
tp783
a(S'brilliant'
F3.3300000000000001
tp784
a(S'loss'
F3.3399999999999999
tp785
a(S'confession'
F3.3399999999999999
tp786
a(S'marrow'
F3.3500000000000001
tp787
a(S'slender'
F3.3500000000000001
tp788
a(S'yacht'
F3.3500000000000001
tp789
a(S'trust'
F3.3500000000000001
tp790
a(S'scramble'
F3.3500000000000001
tp791
a(S'vulgar'
F3.3500000000000001
tp792
a(S'hint'
F3.3500000000000001
tp793
a(S'decade'
F3.3500000000000001
tp794
a(S'alive'
F3.3500000000000001
tp795
a(S'adorn'
F3.3500000000000001
tp796
a(S'slander'
F3.3500000000000001
tp797
a(S'grief'
F3.3500000000000001
tp798
a(S'reality'
F3.3599999999999999
tp799
a(S'divide'
F3.3599999999999999
tp800
a(S'dumb'
F3.3599999999999999
tp801
a(S'law'
F3.3599999999999999
tp802
a(S'trick'
F3.3599999999999999
tp803
a(S'dry'
F3.3599999999999999
tp804
a(S'dump'
F3.3599999999999999
tp805
a(S'order'
F3.3700000000000001
tp806
a(S'left'
F3.3700000000000001
tp807
a(S'hustle'
p808
F3.3700000000000001
tp809
a(S'presence'
F3.3700000000000001
tp810
a(S'zero'
F3.3700000000000001
tp811
a(S'repress'
F3.3700000000000001
tp812
a(S'meet'
F3.3700000000000001
tp813
a(S'present'
F3.3700000000000001
tp814
a(S'meek'
F3.3700000000000001
tp815
a(S'fad'
F3.3700000000000001
tp816
a(S'separate'
F3.3799999999999999
tp817
a(S'slither'
F3.3799999999999999
tp818
a(S'rank'
F3.3799999999999999
tp819
a(S'hazard'
F3.3799999999999999
tp820
a(S'assist'
F3.3799999999999999
tp821
a(S'sell'
F3.3799999999999999
tp822
a(S'think'
F3.3799999999999999
tp823
a(S'south'
F3.3900000000000001
tp824
a(S'adverb'
F3.3900000000000001
tp825
a(S'extravagant'
F3.3900000000000001
tp826
a(S'stupid'
F3.3900000000000001
tp827
a(S'lower'
F3.3900000000000001
tp828
a(S'toasty'
F3.3900000000000001
tp829
a(S'tale'
F3.3900000000000001
tp830
a(S'quick'
F3.3900000000000001
tp831
a(S'vacate'
F3.3900000000000001
tp832
a(S'stern'
F3.3999999999999999
tp833
a(S'thaw'
F3.3999999999999999
tp834
a(S'aim'
F3.3999999999999999
tp835
a(S'pull'
F3.3999999999999999
tp836
a(S'goal'
F3.3999999999999999
tp837
a(S'year'
F3.3999999999999999
tp838
a(S'turn'
F3.3999999999999999
tp839
a(S'bumble'
F3.3999999999999999
tp840
a(S'defend'
F3.3999999999999999
tp841
a(S'shame'
F3.3999999999999999
tp842
a(S'appearance'
F3.3999999999999999
tp843
a(S'halt'
F3.4100000000000001
tp844
a(S'cheerful'
F3.4100000000000001
tp845
a(S'triumph'
F3.4100000000000001
tp846
a(S'angel'
F3.4100000000000001
tp847
a(S'old'
F3.4100000000000001
tp848
a(S'marry'
F3.4100000000000001
tp849
a(S'construct'
F3.4100000000000001
tp850
a(S'refuse'
F3.4199999999999999
tp851
a(S'stuck'
F3.4199999999999999
tp852
a(S'addition'
F3.4199999999999999
tp853
a(S'psychology'
F3.4199999999999999
tp854
a(S'crisp'
F3.4199999999999999
tp855
a(S'preview'
F3.4199999999999999
tp856
a(S'count'
F3.4199999999999999
tp857
a(S'prosper'
F3.4300000000000002
tp858
a(S'liberty'
F3.4300000000000002
tp859
a(S'search'
F3.4300000000000002
tp860
a(S'wed'
F3.4300000000000002
tp861
a(S'narrow'
F3.4300000000000002
tp862
a(S'reason'
F3.4399999999999999
tp863
a(S'forbid'
F3.4399999999999999
tp864
a(S'fasten'
F3.4399999999999999
tp865
a(S'wide'
F3.4399999999999999
tp866
a(S'energy'
F3.4399999999999999
tp867
a(S'new'
F3.4399999999999999
tp868
a(S'imitate'
F3.4399999999999999
tp869
a(S'see'
F3.4399999999999999
tp870
a(S'forbidden'
F3.4399999999999999
tp871
a(S'blackboard'
F3.4500000000000002
tp872
a(S'visit'
F3.4500000000000002
tp873
a(S'earn'
F3.4500000000000002
tp874
a(S'fit'
F3.4500000000000002
tp875
a(S'habit'
F3.4500000000000002
tp876
a(S'evidence'
F3.4500000000000002
tp877
a(S'criticism'
F3.4500000000000002
tp878
a(S'refreshing'
F3.4500000000000002
tp879
a(S'quench'
F3.4500000000000002
tp880
a(S'flutter'
F3.4500000000000002
tp881
a(S'wear'
F3.46
tp882
a(S'still'
F3.46
tp883
a(S'engagement'
F3.46
tp884
a(S'thing'
F3.46
tp885
a(S'rush'
F3.46
tp886
a(S'foot'
F3.46
tp887
a(S'lazy'
F3.46
tp888
a(S'retreat'
F3.46
tp889
a(S'private'
F3.46
tp890
a(S'fool'
F3.46
tp891
a(S'pour'
F3.4700000000000002
tp892
a(S'weak'
F3.4700000000000002
tp893
a(S'foul'
F3.4700000000000002
tp894
a(S'culture'
F3.4700000000000002
tp895
a(S'counsel'
F3.4700000000000002
tp896
a(S'astrology'
F3.48
tp897
a(S'little'
F3.48
tp898
a(S'rest'
F3.48
tp899
a(S'majority'
F3.48
tp900
a(S'joke'
F3.48
tp901
a(S'protection'
F3.4900000000000002
tp902
a(S'spell'
F3.4900000000000002
tp903
a(S'ill'
F3.4900000000000002
tp904
a(S'minor'
F3.4900000000000002
tp905
a(S'dense'
F3.4900000000000002
tp906
a(S'autumn'
F3.5
tp907
a(S'sum'
F3.5
tp908
a(S'praise'
F3.5
tp909
a(S'size'
F3.5
tp910
a(S'charge'
F3.5
tp911
a(S'harsh'
F3.5
tp912
a(S'luxury'
F3.5
tp913
a(S'proof'
F3.5099999999999998
tp914
a(S'love'
F3.5099999999999998
tp915
a(S'prime'
F3.5099999999999998
tp916
a(S'comedy'
F3.5099999999999998
tp917
a(S'happy'
F3.5099999999999998
tp918
a(S'come'
F3.5099999999999998
tp919
a(S'gourmet'
p920
F3.5099999999999998
tp921
a(S'moist'
F3.5099999999999998
tp922
a(S'smear'
F3.5099999999999998
tp923
a(S'clear'
F3.5099999999999998
tp924
a(S'clever'
F3.5099999999999998
tp925
a(S'sad'
F3.52
tp926
a(S'peaceful'
F3.52
tp927
a(S'minute'
F3.52
tp928
a(S'break'
F3.52
tp929
a(S'minutes'
F3.52
tp930
a(S'worn'
F3.5299999999999998
tp931
a(S'right'
F3.5299999999999998
tp932
a(S'five'
F3.5299999999999998
tp933
a(S'brief'
F3.5299999999999998
tp934
a(S'punishment'
F3.5299999999999998
tp935
a(S'mash'
F3.5299999999999998
tp936
a(S'inhale'
F3.5299999999999998
tp937
a(S'plan'
F3.5299999999999998
tp938
a(S'glory'
F3.5299999999999998
tp939
a(S'legion'
F3.5299999999999998
tp940
a(S'die'
F3.54
tp941
a(S'cure'
F3.54
tp942
a(S'health'
F3.54
tp943
a(S'regulation'
F3.54
tp944
a(S'haul'
F3.54
tp945
a(S'defeat'
F3.54
tp946
a(S'north'
F3.54
tp947
a(S'joy'
F3.54
tp948
a(S'mend'
F3.54
tp949
a(S'rot'
F3.54
tp950
a(S'rural'
F3.54
tp951
a(S'weigh'
F3.54
tp952
a(S'multiply'
F3.5499999999999998
tp953
a(S'burst'
F3.5499999999999998
tp954
a(S'warning'
F3.5499999999999998
tp955
a(S'reach'
F3.5499999999999998
tp956
a(S'stare'
F3.5600000000000001
tp957
a(S'calm'
F3.5600000000000001
tp958
a(S'phase'
F3.5600000000000001
tp959
a(S'measure'
F3.5600000000000001
tp960
a(S'speed'
F3.5600000000000001
tp961
a(S'serial'
F3.5600000000000001
tp962
a(S'hearing'
F3.5699999999999998
tp963
a(S'four'
F3.5699999999999998
tp964
a(S'catastrophe'
F3.5800000000000001
tp965
a(S'bend'
F3.5800000000000001
tp966
a(S'bribe'
F3.5800000000000001
tp967
a(S'whole'
F3.5800000000000001
tp968
a(S'definition'
F3.5800000000000001
tp969
a(S'theft'
F3.5800000000000001
tp970
a(S'east'
F3.5899999999999999
tp971
a(S'space'
F3.5899999999999999
tp972
a(S'regulations'
F3.5899999999999999
tp973
a(S'bunch'
F3.5899999999999999
tp974
a(S'steal'
F3.5899999999999999
tp975
a(S'apathy'
F3.6000000000000001
tp976
a(S'sale'
F3.6000000000000001
tp977
a(S'trance'
F3.6000000000000001
tp978
a(S'nag'
F3.6000000000000001
tp979
a(S'him'
p980
F3.6000000000000001
tp981
a(S'prayer'
F3.6000000000000001
tp982
a(S'holiday'
F3.6000000000000001
tp983
a(S'dizzy'
F3.6000000000000001
tp984
a(S'profit'
F3.6000000000000001
tp985
a(S'agony'
F3.6000000000000001
tp986
a(S'cool'
F3.6000000000000001
tp987
a(S'sales'
F3.6000000000000001
tp988
a(S'spend'
F3.6099999999999999
tp989
a(S'tense'
F3.6099999999999999
tp990
a(S'demolish'
F3.6099999999999999
tp991
a(S'destruction'
F3.6099999999999999
tp992
a(S'second'
F3.6099999999999999
tp993
a(S'god'
F3.6099999999999999
tp994
a(S'can'
F3.6099999999999999
tp995
a(S'till'
F3.6099999999999999
tp996
a(S'hue'
F3.6099999999999999
tp997
a(S'buy'
F3.6099999999999999
tp998
a(S'session'
F3.6200000000000001
tp999
a(S'pest'
F3.6200000000000001
tp1000
a(S'amount'
F3.6200000000000001
tp1001
a(S'soar'
F3.6200000000000001
tp1002
a(S'high'
F3.6200000000000001
tp1003
a(S'total'
F3.6200000000000001
tp1004
a(S'hell'
F3.6200000000000001
tp1005
a(S'shove'
F3.6200000000000001
tp1006
a(S'gender'
F3.6299999999999999
tp1007
a(S'destroy'
F3.6299999999999999
tp1008
a(S'occupation'
F3.6299999999999999
tp1009
a(S'pray'
F3.6299999999999999
tp1010
a(S'puff'
F3.6299999999999999
tp1011
a(S'account'
F3.6299999999999999
tp1012
a(S'smother'
F3.6299999999999999
tp1013
a(S'center'
F3.6299999999999999
tp1014
a(S'career'
F3.6299999999999999
tp1015
a(S'motion'
F3.6299999999999999
tp1016
a(S'fill'
F3.6299999999999999
tp1017
a(S'rich'
F3.6299999999999999
tp1018
a(S'pressure'
F3.6299999999999999
tp1019
a(S'universe'
F3.6299999999999999
tp1020
a(S'cruel'
F3.6299999999999999
tp1021
a(S'term'
F3.6299999999999999
tp1022
a(S'rise'
F3.6400000000000001
tp1023
a(S'problem'
F3.6400000000000001
tp1024
a(S'shrink'
F3.6499999999999999
tp1025
a(S'empty'
F3.6499999999999999
tp1026
a(S'foe'
F3.6499999999999999
tp1027
a(S'toss'
F3.6499999999999999
tp1028
a(S'evacuate'
F3.6499999999999999
tp1029
a(S'profession'
F3.6499999999999999
tp1030
a(S'chemistry'
F3.6499999999999999
tp1031
a(S'learn'
F3.6600000000000001
tp1032
a(S'drama'
F3.6600000000000001
tp1033
a(S'decay'
F3.6600000000000001
tp1034
a(S'hurt'
F3.6600000000000001
tp1035
a(S'hobby'
F3.6600000000000001
tp1036
a(S'you'
F3.6600000000000001
tp1037
a(S'vacancy'
F3.6600000000000001
tp1038
a(S'climb'
F3.6699999999999999
tp1039
a(S'skinny'
F3.6699999999999999
tp1040
a(S'beat'
F3.6699999999999999
tp1041
a(S'trace'
F3.6699999999999999
tp1042
a(S'lease'
F3.6699999999999999
tp1043
a(S'miss'
F3.6800000000000002
tp1044
a(S'danger'
F3.6800000000000002
tp1045
a(S'final'
F3.6800000000000002
tp1046
a(S'long'
F3.6800000000000002
tp1047
a(S'ugly'
F3.6800000000000002
tp1048
a(S'area'
F3.6800000000000002
tp1049
a(S'aid'
F3.6800000000000002
tp1050
a(S'benefit'
F3.6800000000000002
tp1051
a(S'bury'
F3.6800000000000002
tp1052
a(S'trade'
F3.6800000000000002
tp1053
a(S'spawn'
F3.6800000000000002
tp1054
a(S'harmony'
F3.6800000000000002
tp1055
a(S'stench'
F3.6800000000000002
tp1056
a(S'wager'
F3.6899999999999999
tp1057
a(S'character'
F3.6899999999999999
tp1058
a(S'management'
F3.6899999999999999
tp1059
a(S'reap'
F3.6899999999999999
tp1060
a(S'goblin'
p1061
F3.6899999999999999
tp1062
a(S'frill'
F3.7000000000000002
tp1063
a(S'brittle'
F3.7000000000000002
tp1064
a(S'tread'
F3.7000000000000002
tp1065
a(S'grade'
F3.7000000000000002
tp1066
a(S'discussion'
F3.7000000000000002
tp1067
a(S'lift'
F3.7000000000000002
tp1068
a(S'quiet'
F3.7000000000000002
tp1069
a(S'affection'
F3.7000000000000002
tp1070
a(S'religion'
F3.71
tp1071
a(S'half'
F3.71
tp1072
a(S'insult'
F3.71
tp1073
a(S'famine'
F3.71
tp1074
a(S'afternoon'
F3.71
tp1075
a(S'clue'
F3.71
tp1076
a(S'relax'
F3.71
tp1077
a(S'seek'
F3.71
tp1078
a(S'stuff'
F3.71
tp1079
a(S'event'
F3.7200000000000002
tp1080
a(S'crunch'
F3.7200000000000002
tp1081
a(S'calculus'
F3.7200000000000002
tp1082
a(S'one'
F3.7200000000000002
tp1083
a(S'safe'
F3.7200000000000002
tp1084
a(S'open'
F3.7200000000000002
tp1085
a(S'wild'
F3.7200000000000002
tp1086
a(S'reading'
F3.73
tp1087
a(S'subtraction'
F3.73
tp1088
a(S'pair'
F3.73
tp1089
a(S'gathering'
F3.73
tp1090
a(S'week'
F3.7400000000000002
tp1091
a(S'call'
F3.7400000000000002
tp1092
a(S'full'
F3.7400000000000002
tp1093
a(S'eight'
F3.7400000000000002
tp1094
a(S'loan'
F3.7400000000000002
tp1095
a(S'looks'
F3.7400000000000002
tp1096
a(S'clench'
F3.7400000000000002
tp1097
a(S'broken'
F3.7400000000000002
tp1098
a(S'look'
F3.7400000000000002
tp1099
a(S'hum'
F3.7400000000000002
tp1100
a(S'upstream'
F3.7400000000000002
tp1101
a(S'roost'
F3.75
tp1102
a(S'pieces'
F3.75
tp1103
a(S'employment'
F3.75
tp1104
a(S'style'
F3.75
tp1105
a(S'anger'
F3.75
tp1106
a(S'century'
F3.75
tp1107
a(S'view'
F3.75
tp1108
a(S'fashion'
F3.75
tp1109
a(S'geology'
F3.75
tp1110
a(S'mess'
F3.75
tp1111
a(S'snob'
F3.75
tp1112
a(S'length'
F3.75
tp1113
a(S'playing'
F3.75
tp1114
a(S'piece'
F3.75
tp1115
a(S'quarrel'
F3.75
tp1116
a(S'angry'
F3.75
tp1117
a(S'atmosphere'
F3.7599999999999998
tp1118
a(S'price'
F3.7599999999999998
tp1119
a(S'number'
F3.7599999999999998
tp1120
a(S'musty'
F3.7599999999999998
tp1121
a(S'waste'
F3.7599999999999998
tp1122
a(S'kill'
F3.77
tp1123
a(S'quiver'
F3.77
tp1124
a(S'suffocate'
F3.77
tp1125
a(S'thick'
F3.77
tp1126
a(S'ace'
F3.7799999999999998
tp1127
a(S'score'
F3.7799999999999998
tp1128
a(S'math'
F3.7799999999999998
tp1129
a(S'bounce'
F3.7799999999999998
tp1130
a(S'act'
F3.79
tp1131
a(S'frail'
F3.79
tp1132
a(S'rap'
F3.79
tp1133
a(S'two'
F3.79
tp1134
a(S'liar'
F3.79
tp1135
a(S'horoscope'
F3.79
tp1136
a(S'time'
F3.79
tp1137
a(S'leap'
F3.7999999999999998
tp1138
a(S'pat'
F3.7999999999999998
tp1139
a(S'identical'
F3.7999999999999998
tp1140
a(S'verdict'
F3.7999999999999998
tp1141
a(S'information'
F3.7999999999999998
tp1142
a(S'argument'
F3.7999999999999998
tp1143
a(S'up'
F3.7999999999999998
tp1144
a(S'move'
F3.8100000000000001
tp1145
a(S'alone'
F3.8100000000000001
tp1146
a(S'mechanical'
F3.8100000000000001
tp1147
a(S'crime'
F3.8100000000000001
tp1148
a(S'clumsy'
F3.8199999999999998
tp1149
a(S'toil'
F3.8199999999999998
tp1150
a(S'thin'
F3.8199999999999998
tp1151
a(S'clean'
F3.8199999999999998
tp1152
a(S'section'
F3.8199999999999998
tp1153
a(S'slippery'
F3.8300000000000001
tp1154
a(S'wiggle'
F3.8300000000000001
tp1155
a(S'astronomy'
F3.8399999999999999
tp1156
a(S'deliver'
F3.8399999999999999
tp1157
a(S'recruit'
F3.8399999999999999
tp1158
a(S'evaluate'
F3.8399999999999999
tp1159
a(S'sight'
F3.8399999999999999
tp1160
a(S'orderly'
F3.8399999999999999
tp1161
a(S'raw'
F3.8399999999999999
tp1162
a(S'overflow'
F3.8500000000000001
tp1163
a(S'skip'
F3.8500000000000001
tp1164
a(S'course'
F3.8500000000000001
tp1165
a(S'answer'
F3.8500000000000001
tp1166
a(S'holler'
F3.8500000000000001
tp1167
a(S'notice'
F3.8500000000000001
tp1168
a(S'height'
F3.8500000000000001
tp1169
a(S'pop'
F3.8500000000000001
tp1170
a(S'side'
F3.8500000000000001
tp1171
a(S'vote'
F3.8500000000000001
tp1172
a(S'arithmetic'
F3.8500000000000001
tp1173
a(S'death'
F3.8599999999999999
tp1174
a(S'fall'
F3.8599999999999999
tp1175
a(S'graft'
p1176
F3.8599999999999999
tp1177
a(S'form'
F3.8599999999999999
tp1178
a(S'hate'
F3.8599999999999999
tp1179
a(S'starve'
F3.8700000000000001
tp1180
a(S'expert'
F3.8700000000000001
tp1181
a(S'vacuum'
F3.8700000000000001
tp1182
a(S'fluffy'
F3.8700000000000001
tp1183
a(S'attack'
F3.8700000000000001
tp1184
a(S'work'
F3.8799999999999999
tp1185
a(S'participate'
F3.8799999999999999
tp1186
a(S'hang'
F3.8799999999999999
tp1187
a(S'blow'
F3.8799999999999999
tp1188
a(S'smash'
F3.8799999999999999
tp1189
a(S'hung'
F3.8799999999999999
tp1190
a(S'semester'
F3.8799999999999999
tp1191
a(S'bit'
F3.8799999999999999
tp1192
a(S'life'
F3.8799999999999999
tp1193
a(S'kingdom'
F3.8799999999999999
tp1194
a(S'choke'
F3.8799999999999999
tp1195
a(S'zone'
F3.8799999999999999
tp1196
a(S'fray'
F3.8900000000000001
tp1197
a(S'sick'
F3.8900000000000001
tp1198
a(S'straight'
F3.8900000000000001
tp1199
a(S'stale'
F3.8900000000000001
tp1200
a(S'sticky'
F3.8900000000000001
tp1201
a(S'broad'
F3.8900000000000001
tp1202
a(S'beautiful'
F3.8900000000000001
tp1203
a(S'broke'
F3.8999999999999999
tp1204
a(S'stink'
F3.8999999999999999
tp1205
a(S'hear'
F3.8999999999999999
tp1206
a(S'society'
F3.8999999999999999
tp1207
a(S'question'
F3.9100000000000001
tp1208
a(S'lighter'
F3.9100000000000001
tp1209
a(S'lean'
F3.9100000000000001
tp1210
a(S'smooth'
F3.9100000000000001
tp1211
a(S'croak'
F3.9100000000000001
tp1212
a(S'flee'
F3.9100000000000001
tp1213
a(S'period'
F3.9199999999999999
tp1214
a(S'trot'
F3.9199999999999999
tp1215
a(S'item'
F3.9300000000000002
tp1216
a(S'travel'
F3.9300000000000002
tp1217
a(S'comfort'
F3.9300000000000002
tp1218
a(S'show'
F3.9300000000000002
tp1219
a(S'entertain'
F3.9300000000000002
tp1220
a(S'noun'
F3.9300000000000002
tp1221
a(S'crawl'
F3.9300000000000002
tp1222
a(S'evening'
F3.9300000000000002
tp1223
a(S'dim'
F3.9300000000000002
tp1224
a(S'build'
F3.9300000000000002
tp1225
a(S'carry'
F3.9300000000000002
tp1226
a(S'loud'
F3.9300000000000002
tp1227
a(S'combine'
F3.9300000000000002
tp1228
a(S'marriage'
F3.9399999999999999
tp1229
a(S'calorie'
F3.9500000000000002
tp1230
a(S'he'
F3.9500000000000002
tp1231
a(S'riddle'
F3.9500000000000002
tp1232
a(S'treat'
F3.9500000000000002
tp1233
a(S'conference'
F3.9500000000000002
tp1234
a(S'symbol'
F3.9500000000000002
tp1235
a(S'deep'
F3.96
tp1236
a(S'grown'
F3.96
tp1237
a(S'biology'
F3.96
tp1238
a(S'name'
F3.96
tp1239
a(S'double'
F3.96
tp1240
a(S'firm'
F3.96
tp1241
a(S'alert'
F3.96
tp1242
a(S'deer'
F3.96
tp1243
a(S'shock'
F3.9700000000000002
tp1244
a(S'creator'
F3.9700000000000002
tp1245
a(S'place'
F3.98
tp1246
a(S'living'
F3.98
tp1247
a(S'golden'
F3.98
tp1248
a(S'fry'
F3.98
tp1249
a(S'climate'
F3.98
tp1250
a(S'deadly'
F3.98
tp1251
a(S'small'
F3.98
tp1252
a(S'rear'
F3.98
tp1253
a(S'grammar'
F3.98
tp1254
a(S'precipice'
F4
tp1255
a(S'donor'
F4
tp1256
a(S'language'
F4
tp1257
a(S'graze'
F4
tp1258
a(S'damp'
F4
tp1259
a(S'warm'
F4
tp1260
a(S'psalm'
F4
tp1261
a(S'rinse'
F4
tp1262
a(S'tow'
F4
tp1263
a(S'permit'
F4
tp1264
a(S'stalk'
F4
tp1265
a(S'snore'
F4
tp1266
a(S'tough'
F4
tp1267
a(S'curse'
F4.0199999999999996
tp1268
a(S'dynasty'
F4.0199999999999996
tp1269
a(S'disguise'
F4.0199999999999996
tp1270
a(S'catch'
F4.0199999999999996
tp1271
a(S'frigid'
F4.0199999999999996
tp1272
a(S'physics'
F4.0199999999999996
tp1273
a(S'jesus'
F4.0199999999999996
tp1274
a(S'deteriorate'
F4.0199999999999996
tp1275
a(S'she'
F4.0199999999999996
tp1276
a(S'remedy'
F4.0300000000000002
tp1277
a(S'warmth'
F4.0300000000000002
tp1278
a(S'soak'
F4.0300000000000002
tp1279
a(S'fell'
F4.0300000000000002
tp1280
a(S'oval'
F4.0300000000000002
tp1281
a(S'west'
F4.0300000000000002
tp1282
a(S'movement'
F4.0300000000000002
tp1283
a(S'flavor'
F4.0300000000000002
tp1284
a(S'lie'
F4.04
tp1285
a(S'thirsty'
F4.04
tp1286
a(S'melt'
F4.04
tp1287
a(S'extremity'
F4.04
tp1288
a(S'general'
F4.04
tp1289
a(S'listen'
F4.04
tp1290
a(S'business'
F4.0499999999999998
tp1291
a(S'illness'
F4.0499999999999998
tp1292
a(S'throw'
F4.0499999999999998
tp1293
a(S'trim'
F4.0499999999999998
tp1294
a(S'bristle'
F4.0499999999999998
tp1295
a(S'election'
F4.0499999999999998
tp1296
a(S'seller'
F4.0499999999999998
tp1297
a(S'grow'
F4.0499999999999998
tp1298
a(S'scene'
F4.0499999999999998
tp1299
a(S'rapid'
F4.0499999999999998
tp1300
a(S'bitter'
F4.0499999999999998
tp1301
a(S'slay'
F4.0700000000000003
tp1302
a(S'scarf'
F4.0700000000000003
tp1303
a(S'scare'
F4.0700000000000003
tp1304
a(S'shine'
F4.0700000000000003
tp1305
a(S'constitution'
F4.0700000000000003
tp1306
a(S'spook'
F4.0700000000000003
tp1307
a(S'shiny'
F4.0700000000000003
tp1308
a(S'rigid'
F4.0700000000000003
tp1309
a(S'dirty'
F4.0800000000000001
tp1310
a(S'heal'
F4.0800000000000001
tp1311
a(S'hold'
F4.0800000000000001
tp1312
a(S'pink'
F4.0800000000000001
tp1313
a(S'chop'
F4.0800000000000001
tp1314
a(S'reward'
F4.0800000000000001
tp1315
a(S'tramp'
F4.0800000000000001
tp1316
a(S'comma'
F4.0800000000000001
tp1317
a(S'drench'
F4.0800000000000001
tp1318
a(S'whisper'
F4.0800000000000001
tp1319
a(S'munch'
F4.0800000000000001
tp1320
a(S'learner'
F4.0800000000000001
tp1321
a(S'winner'
F4.0800000000000001
tp1322
a(S'buzz'
F4.0800000000000001
tp1323
a(S'rhythm'
F4.0800000000000001
tp1324
a(S'defrost'
F4.0800000000000001
tp1325
a(S'outline'
F4.0800000000000001
tp1326
a(S'heavy'
F4.0899999999999999
tp1327
a(S'fair'
F4.0899999999999999
tp1328
a(S'mass'
F4.0899999999999999
tp1329
a(S'vice'
F4.0899999999999999
tp1330
a(S'soft'
F4.0999999999999996
tp1331
a(S'background'
F4.0999999999999996
tp1332
a(S'study'
F4.0999999999999996
tp1333
a(S'vacation'
F4.0999999999999996
tp1334
a(S'musk'
F4.1100000000000003
tp1335
a(S'job'
F4.1100000000000003
tp1336
a(S'sober'
F4.1100000000000003
tp1337
a(S'snap'
F4.1100000000000003
tp1338
a(S'hunt'
F4.1200000000000001
tp1339
a(S'push'
F4.1200000000000001
tp1340
a(S'husk'
F4.1200000000000001
tp1341
a(S'youth'
F4.1200000000000001
tp1342
a(S'sharp'
F4.1200000000000001
tp1343
a(S'sing'
F4.1200000000000001
tp1344
a(S'purchase'
F4.1200000000000001
tp1345
a(S'debt'
F4.1200000000000001
tp1346
a(S'halloween'
F4.1200000000000001
tp1347
a(S'level'
F4.1200000000000001
tp1348
a(S'disaster'
F4.1200000000000001
tp1349
a(S'design'
F4.1299999999999999
tp1350
a(S'age'
F4.1399999999999997
tp1351
a(S'toll'
F4.1399999999999997
tp1352
a(S'ride'
F4.1399999999999997
tp1353
a(S'pollution'
F4.1399999999999997
tp1354
a(S'easter'
F4.1399999999999997
tp1355
a(S'science'
F4.1399999999999997
tp1356
a(S'front'
F4.1399999999999997
tp1357
a(S'cut'
F4.1500000000000004
tp1358
a(S'speak'
F4.1500000000000004
tp1359
a(S'sprain'
F4.1500000000000004
tp1360
a(S'smudge'
F4.1500000000000004
tp1361
a(S'plot'
F4.1600000000000001
tp1362
a(S'fight'
F4.1600000000000001
tp1363
a(S'hunger'
F4.1600000000000001
tp1364
a(S'scream'
F4.1600000000000001
tp1365
a(S'read'
F4.1600000000000001
tp1366
a(S'nation'
F4.1699999999999999
tp1367
a(S'story'
F4.1799999999999997
tp1368
a(S'sport'
F4.1799999999999997
tp1369
a(S'sweep'
F4.1799999999999997
tp1370
a(S'talk'
F4.1799999999999997
tp1371
a(S'polish'
F4.1799999999999997
tp1372
a(S'lord'
F4.1799999999999997
tp1373
a(S'giggle'
F4.1799999999999997
tp1374
a(S'tan'
F4.1799999999999997
tp1375
a(S'daily'
F4.1900000000000004
tp1376
a(S'hundred'
F4.1900000000000004
tp1377
a(S'twist'
F4.1900000000000004
tp1378
a(S'decorate'
F4.1900000000000004
tp1379
a(S'produce'
F4.1900000000000004
tp1380
a(S'lesson'
F4.1900000000000004
tp1381
a(S'wash'
F4.2000000000000002
tp1382
a(S'bang'
F4.2000000000000002
tp1383
a(S'neuron'
F4.2000000000000002
tp1384
a(S'march'
F4.2000000000000002
tp1385
a(S'charm'
F4.2000000000000002
tp1386
a(S'fraternity'
F4.2000000000000002
tp1387
a(S'huge'
F4.21
tp1388
a(S'tight'
F4.21
tp1389
a(S'sob'
F4.21
tp1390
a(S'hard'
F4.21
tp1391
a(S'hero'
F4.2199999999999998
tp1392
a(S'pain'
F4.2199999999999998
tp1393
a(S'income'
F4.2199999999999998
tp1394
a(S'furry'
F4.2199999999999998
tp1395
a(S'play'
F4.2199999999999998
tp1396
a(S'shape'
F4.2199999999999998
tp1397
a(S'evict'
F4.2199999999999998
tp1398
a(S'dig'
F4.2199999999999998
tp1399
a(S'lottery'
F4.2300000000000004
tp1400
a(S'hotter'
F4.2300000000000004
tp1401
a(S'curved'
F4.2300000000000004
tp1402
a(S'divorce'
F4.2300000000000004
tp1403
a(S'slice'
F4.2300000000000004
tp1404
a(S'crackle'
F4.2300000000000004
tp1405
a(S'lit'
F4.2300000000000004
tp1406
a(S'hungry'
F4.2400000000000002
tp1407
a(S'shiver'
F4.2400000000000002
tp1408
a(S'spin'
F4.2400000000000002
tp1409
a(S'transportation'
F4.25
tp1410
a(S'ghost'
F4.25
tp1411
a(S'exit'
F4.25
tp1412
a(S'dead'
F4.25
tp1413
a(S'accident'
F4.2599999999999998
tp1414
a(S'flat'
F4.2599999999999998
tp1415
a(S'alter'
F4.2599999999999998
tp1416
a(S'caption'
F4.2599999999999998
tp1417
a(S'hail'
F4.2599999999999998
tp1418
a(S'zenith'
F4.2599999999999998
tp1419
a(S'purple'
F4.2699999999999996
tp1420
a(S'safety'
F4.2699999999999996
tp1421
a(S'vision'
F4.2699999999999996
tp1422
a(S'porch'
F4.2699999999999996
tp1423
a(S'crash'
F4.2800000000000002
tp1424
a(S'peel'
F4.2800000000000002
tp1425
a(S'tax'
F4.2800000000000002
tp1426
a(S'shopping'
F4.2800000000000002
tp1427
a(S'weather'
F4.2800000000000002
tp1428
a(S'walk'
F4.2800000000000002
tp1429
a(S'graduation'
F4.2800000000000002
tp1430
a(S'sue'
F4.2800000000000002
tp1431
a(S'edge'
F4.2800000000000002
tp1432
a(S'melody'
F4.2800000000000002
tp1433
a(S'grate'
p1434
F4.2800000000000002
tp1435
a(S'laugh'
F4.29
tp1436
a(S'rent'
F4.29
tp1437
a(S'pike'
F4.29
tp1438
a(S'yell'
F4.29
tp1439
a(S'stumble'
F4.29
tp1440
a(S'outlaw'
F4.29
tp1441
a(S'deaf'
F4.29
tp1442
a(S'opponent'
F4.2999999999999998
tp1443
a(S'roll'
F4.2999999999999998
tp1444
a(S'antidote'
F4.2999999999999998
tp1445
a(S'cuddle'
F4.2999999999999998
tp1446
a(S'riot'
F4.3099999999999996
tp1447
a(S'arts'
F4.3099999999999996
tp1448
a(S'state'
F4.3099999999999996
tp1449
a(S'lather'
F4.3099999999999996
tp1450
a(S'rotten'
F4.3099999999999996
tp1451
a(S'top'
F4.3099999999999996
tp1452
a(S'bite'
F4.3200000000000003
tp1453
a(S'slip'
F4.3200000000000003
tp1454
a(S'draw'
F4.3200000000000003
tp1455
a(S'chew'
F4.3200000000000003
tp1456
a(S'weep'
F4.3200000000000003
tp1457
a(S'cry'
F4.3200000000000003
tp1458
a(S'live'
F4.3200000000000003
tp1459
a(S'ache'
F4.3300000000000001
tp1460
a(S'tarnish'
F4.3300000000000001
tp1461
a(S'sit'
F4.3300000000000001
tp1462
a(S'felt'
F4.3300000000000001
tp1463
a(S'measurement'
F4.3300000000000001
tp1464
a(S'self'
F4.3300000000000001
tp1465
a(S'scrap'
F4.3300000000000001
tp1466
a(S'wage'
F4.3300000000000001
tp1467
a(S'sew'
F4.3300000000000001
tp1468
a(S'unit'
F4.3300000000000001
tp1469
a(S'round'
F4.3399999999999999
tp1470
a(S'base'
F4.3399999999999999
tp1471
a(S'interview'
F4.3399999999999999
tp1472
a(S'guide'
F4.3499999999999996
tp1473
a(S'shoot'
F4.3499999999999996
tp1474
a(S'weight'
F4.3499999999999996
tp1475
a(S'tall'
F4.3499999999999996
tp1476
a(S'region'
F4.3499999999999996
tp1477
a(S'drive'
F4.3499999999999996
tp1478
a(S'load'
F4.3499999999999996
tp1479
a(S'baked'
F4.3499999999999996
tp1480
a(S'note'
F4.3600000000000003
tp1481
a(S'dine'
F4.3600000000000003
tp1482
a(S'art'
F4.3600000000000003
tp1483
a(S'compact'
F4.3700000000000001
tp1484
a(S'mine'
F4.3700000000000001
tp1485
a(S'grind'
F4.3700000000000001
tp1486
a(S'fever'
F4.3700000000000001
tp1487
a(S'check'
F4.3799999999999999
tp1488
a(S'strand'
F4.3799999999999999
tp1489
a(S'burial'
F4.3799999999999999
tp1490
a(S'grizzly'
F4.3899999999999997
tp1491
a(S'swatter'
F4.3899999999999997
tp1492
a(S'blind'
F4.3899999999999997
tp1493
a(S'sickle'
F4.3899999999999997
tp1494
a(S'trip'
F4.3899999999999997
tp1495
a(S'hit'
F4.3899999999999997
tp1496
a(S'curve'
F4.4000000000000004
tp1497
a(S'smell'
F4.4000000000000004
tp1498
a(S'type'
F4.4000000000000004
tp1499
a(S'fuzzy'
F4.4000000000000004
tp1500
a(S'running'
F4.4000000000000004
tp1501
a(S'bondage'
F4.4000000000000004
tp1502
a(S'awake'
F4.4000000000000004
tp1503
a(S'friends'
F4.4000000000000004
tp1504
a(S'literature'
F4.4000000000000004
tp1505
a(S'chill'
F4.4000000000000004
tp1506
a(S'stand'
F4.4000000000000004
tp1507
a(S'friend'
F4.4000000000000004
tp1508
a(S'float'
F4.4100000000000001
tp1509
a(S'thirst'
F4.4100000000000001
tp1510
a(S'group'
F4.4100000000000001
tp1511
a(S'hop'
F4.4100000000000001
tp1512
a(S'mist'
F4.4199999999999999
tp1513
a(S'write'
F4.4199999999999999
tp1514
a(S'slob'
F4.4199999999999999
tp1515
a(S'tip'
F4.4199999999999999
tp1516
a(S'flush'
F4.4299999999999997
tp1517
a(S'lot'
F4.4299999999999997
tp1518
a(S'permission'
F4.4299999999999997
tp1519
a(S'starboard'
F4.4299999999999997
tp1520
a(S'broil'
F4.4400000000000004
tp1521
a(S'mortgage'
F4.4400000000000004
tp1522
a(S'jump'
F4.4400000000000004
tp1523
a(S'squint'
F4.4500000000000002
tp1524
a(S'sunday'
F4.4500000000000002
tp1525
a(S'weave'
F4.4500000000000002
tp1526
a(S'equation'
F4.4500000000000002
tp1527
a(S'color'
F4.4500000000000002
tp1528
a(S'ewe'
F4.4500000000000002
tp1529
a(S'maker'
F4.46
tp1530
a(S'picket'
F4.46
tp1531
a(S'contact'
F4.46
tp1532
a(S'faint'
F4.46
tp1533
a(S'race'
F4.46
tp1534
a(S'saint'
F4.4699999999999998
tp1535
a(S'sole'
F4.4699999999999998
tp1536
a(S'birthday'
F4.4699999999999998
tp1537
a(S'inch'
F4.4699999999999998
tp1538
a(S'sentry'
F4.4800000000000004
tp1539
a(S'coach'
F4.4800000000000004
tp1540
a(S'rough'
F4.4800000000000004
tp1541
a(S'touch'
F4.4800000000000004
tp1542
a(S'labor'
F4.4900000000000002
tp1543
a(S'spill'
F4.4900000000000002
tp1544
a(S'fairy'
F4.4900000000000002
tp1545
a(S'blue'
F4.4900000000000002
tp1546
a(S'traitor'
F4.5
tp1547
a(S'slum'
F4.5
tp1548
a(S'site'
F4.5
tp1549
a(S'exhale'
F4.5
tp1550
a(S'lecture'
F4.5
tp1551
a(S'frown'
F4.5
tp1552
a(S'electricity'
F4.5099999999999998
tp1553
a(S'run'
F4.5099999999999998
tp1554
a(S'hitchhike'
F4.5099999999999998
tp1555
a(S'squeak'
F4.5099999999999998
tp1556
a(S'fable'
F4.5099999999999998
tp1557
a(S'citizen'
F4.5099999999999998
tp1558
a(S'nerve'
F4.5099999999999998
tp1559
a(S'sting'
F4.5199999999999996
tp1560
a(S'christmas'
F4.5300000000000002
tp1561
a(S'code'
F4.5300000000000002
tp1562
a(S'sweat'
F4.5300000000000002
tp1563
a(S'chore'
F4.5300000000000002
tp1564
a(S'sweet'
F4.5300000000000002
tp1565
a(S'grime'
F4.5300000000000002
tp1566
a(S'structure'
F4.5300000000000002
tp1567
a(S'jerk'
F4.5300000000000002
tp1568
a(S'taste'
F4.5300000000000002
tp1569
a(S'stroke'
F4.5300000000000002
tp1570
a(S'wrap'
F4.5300000000000002
tp1571
a(S'shave'
F4.54
tp1572
a(S'point'
F4.54
tp1573
a(S'country'
F4.54
tp1574
a(S'sour'
F4.54
tp1575
a(S'quack'
F4.5499999999999998
tp1576
a(S'launch'
F4.5499999999999998
tp1577
a(S'message'
F4.5499999999999998
tp1578
a(S'plaid'
F4.5499999999999998
tp1579
a(S'bright'
F4.5499999999999998
tp1580
a(S'boil'
F4.5599999999999996
tp1581
a(S'stripe'
F4.5599999999999996
tp1582
a(S'tumble'
F4.5599999999999996
tp1583
a(S'short'
F4.5700000000000003
tp1584
a(S'filthy'
F4.5700000000000003
tp1585
a(S'well'
F4.5700000000000003
tp1586
a(S'tote'
F4.5700000000000003
tp1587
a(S'saw'
F4.5700000000000003
tp1588
a(S'filth'
F4.5700000000000003
tp1589
a(S'shot'
F4.5700000000000003
tp1590
a(S'season'
F4.5800000000000001
tp1591
a(S'payment'
F4.5800000000000001
tp1592
a(S'scent'
F4.5800000000000001
tp1593
a(S'award'
F4.5800000000000001
tp1594
a(S'ceremony'
F4.5800000000000001
tp1595
a(S'hike'
F4.5800000000000001
tp1596
a(S'helium'
F4.5800000000000001
tp1597
a(S'blush'
F4.5899999999999999
tp1598
a(S'shout'
F4.5999999999999996
tp1599
a(S'mark'
F4.5999999999999996
tp1600
a(S'knit'
F4.5999999999999996
tp1601
a(S'tune'
F4.5999999999999996
tp1602
a(S'jog'
F4.5999999999999996
tp1603
a(S'slimy'
F4.6100000000000003
tp1604
a(S'saber'
F4.6100000000000003
tp1605
a(S'temperature'
F4.6100000000000003
tp1606
a(S'exercise'
F4.6200000000000001
tp1607
a(S'crescent'
F4.6299999999999999
tp1608
a(S'prey'
F4.6299999999999999
tp1609
a(S'watch'
F4.6299999999999999
tp1610
a(S'stretch'
F4.6299999999999999
tp1611
a(S'company'
F4.6299999999999999
tp1612
a(S'shatter'
F4.6299999999999999
tp1613
a(S'brown'
F4.6299999999999999
tp1614
a(S'stab'
F4.6299999999999999
tp1615
a(S'conversation'
F4.6299999999999999
tp1616
a(S'government'
F4.6299999999999999
tp1617
a(S'file'
F4.6299999999999999
tp1618
a(S'freeze'
F4.6299999999999999
tp1619
a(S'print'
F4.6399999999999997
tp1620
a(S'limp'
F4.6399999999999997
tp1621
a(S'smelt'
F4.6399999999999997
tp1622
a(S'dive'
F4.6500000000000004
tp1623
a(S'drunk'
F4.6500000000000004
tp1624
a(S'line'
F4.6500000000000004
tp1625
a(S'feed'
F4.6500000000000004
tp1626
a(S'tour'
F4.6500000000000004
tp1627
a(S'pay'
F4.6500000000000004
tp1628
a(S'black'
F4.6600000000000001
tp1629
a(S'crunchy'
F4.6600000000000001
tp1630
a(S'native'
F4.6699999999999999
tp1631
a(S'day'
F4.6699999999999999
tp1632
a(S'birth'
F4.6699999999999999
tp1633
a(S'cold'
F4.6699999999999999
tp1634
a(S'core'
F4.6699999999999999
tp1635
a(S'waves'
F4.6799999999999997
tp1636
a(S'murder'
F4.6799999999999997
tp1637
a(S'summer'
F4.6799999999999997
tp1638
a(S'figure'
F4.6799999999999997
tp1639
a(S'wave'
F4.6799999999999997
tp1640
a(S'dark'
F4.6799999999999997
tp1641
a(S'white'
F4.6799999999999997
tp1642
a(S'rape'
F4.6799999999999997
tp1643
a(S'flight'
F4.6799999999999997
tp1644
a(S'tear'
F4.6900000000000004
tp1645
a(S'tickle'
F4.6900000000000004
tp1646
a(S'tears'
F4.6900000000000004
tp1647
a(S'shooting'
F4.6900000000000004
tp1648
a(S'resort'
F4.7000000000000002
tp1649
a(S'ritual'
F4.7000000000000002
tp1650
a(S'beam'
F4.7000000000000002
tp1651
a(S'gauge'
F4.7000000000000002
tp1652
a(S'pound'
F4.7000000000000002
tp1653
a(S'allergy'
F4.7000000000000002
tp1654
a(S'spots'
F4.71
tp1655
a(S'volt'
F4.71
tp1656
a(S'spot'
F4.71
tp1657
a(S'mile'
F4.71
tp1658
a(S'bouillon'
F4.71
tp1659
a(S'litter'
F4.71
tp1660
a(S'game'
F4.7199999999999998
tp1661
a(S'sphere'
F4.7199999999999998
tp1662
a(S'brawl'
F4.7199999999999998
tp1663
a(S'shade'
F4.7199999999999998
tp1664
a(S'pawn'
F4.7300000000000004
tp1665
a(S'war'
F4.7300000000000004
tp1666
a(S'wet'
F4.7400000000000002
tp1667
a(S'spicy'
F4.7400000000000002
tp1668
a(S'sleep'
F4.7400000000000002
tp1669
a(S'scale'
F4.75
tp1670
a(S'peak'
F4.75
tp1671
a(S'scales'
F4.75
tp1672
a(S'spank'
F4.75
tp1673
a(S'mold'
F4.75
tp1674
a(S'construction'
F4.75
tp1675
a(S'slap'
F4.75
tp1676
a(S'robbery'
F4.75
tp1677
a(S'border'
F4.75
tp1678
a(S'eat'
F4.75
tp1679
a(S'mayor'
F4.75
tp1680
a(S'commercial'
F4.7599999999999998
tp1681
a(S'sentence'
F4.7599999999999998
tp1682
a(S'bake'
F4.7599999999999998
tp1683
a(S'sore'
F4.7699999999999996
tp1684
a(S'row'
F4.7699999999999996
tp1685
a(S'stiff'
F4.7699999999999996
tp1686
a(S'atom'
F4.7699999999999996
tp1687
a(S'antique'
F4.7800000000000002
tp1688
a(S'inferno'
F4.7800000000000002
tp1689
a(S'breathe'
F4.7800000000000002
tp1690
a(S'channel'
F4.79
tp1691
a(S'germ'
F4.79
tp1692
a(S'pint'
F4.79
tp1693
a(S'i'
F4.79
tp1694
a(S'principal'
F4.7999999999999998
tp1695
a(S'flu'
F4.7999999999999998
tp1696
a(S'fat'
F4.7999999999999998
tp1697
a(S'meeting'
F4.7999999999999998
tp1698
a(S'link'
F4.7999999999999998
tp1699
a(S'burn'
F4.8099999999999996
tp1700
a(S'team'
F4.8099999999999996
tp1701
a(S'mousse'
F4.8099999999999996
tp1702
a(S'vet'
F4.8099999999999996
tp1703
a(S'hole'
F4.8099999999999996
tp1704
a(S'eating'
F4.8099999999999996
tp1705
a(S'chief'
F4.8200000000000003
tp1706
a(S'flash'
F4.8200000000000003
tp1707
a(S'maroon'
F4.8200000000000003
tp1708
a(S'paragraph'
F4.8200000000000003
tp1709
a(S'helper'
F4.8200000000000003
tp1710
a(S'hem'
F4.8300000000000001
tp1711
a(S'night'
F4.8300000000000001
tp1712
a(S'fragrance'
F4.8300000000000001
tp1713
a(S'thief'
F4.8300000000000001
tp1714
a(S'sty'
F4.8399999999999999
tp1715
a(S'itch'
F4.8399999999999999
tp1716
a(S'gallon'
F4.8399999999999999
tp1717
a(S'greek'
F4.8399999999999999
tp1718
a(S'halo'
F4.8399999999999999
tp1719
a(S'heat'
F4.8399999999999999
tp1720
a(S'damage'
F4.8499999999999996
tp1721
a(S'algebra'
F4.8499999999999996
tp1722
a(S'reel'
F4.8499999999999996
tp1723
a(S'swim'
F4.8499999999999996
tp1724
a(S'keeper'
F4.8499999999999996
tp1725
a(S'valentine'
F4.8499999999999996
tp1726
a(S'sow'
F4.8600000000000003
tp1727
a(S'loop'
F4.8600000000000003
tp1728
a(S'labyrinth'
F4.8600000000000003
tp1729
a(S'alarm'
F4.8600000000000003
tp1730
a(S'speech'
F4.8700000000000001
tp1731
a(S'stitch'
F4.8700000000000001
tp1732
a(S'adult'
F4.8799999999999999
tp1733
a(S'wreck'
F4.8799999999999999
tp1734
a(S'incense'
F4.8799999999999999
tp1735
a(S'storage'
F4.8799999999999999
tp1736
a(S'plaything'
F4.8799999999999999
tp1737
a(S'sailing'
F4.8799999999999999
tp1738
a(S'enemy'
F4.8799999999999999
tp1739
a(S'port'
F4.8899999999999997
tp1740
a(S'splash'
F4.8899999999999997
tp1741
a(S'back'
F4.8899999999999997
tp1742
a(S'steps'
F4.9100000000000001
tp1743
a(S'breath'
F4.9100000000000001
tp1744
a(S'hymn'
F4.9100000000000001
tp1745
a(S'bud'
F4.9100000000000001
tp1746
a(S'cook'
F4.9100000000000001
tp1747
a(S'yawn'
F4.9100000000000001
tp1748
a(S'step'
F4.9100000000000001
tp1749
a(S'entrance'
F4.9199999999999999
tp1750
a(S'ten'
F4.9199999999999999
tp1751
a(S'rash'
F4.9199999999999999
tp1752
a(S'poker'
F4.9199999999999999
tp1753
a(S'grip'
F4.9199999999999999
tp1754
a(S'trial'
F4.9199999999999999
tp1755
a(S'explode'
F4.9199999999999999
tp1756
a(S'storm'
F4.9199999999999999
tp1757
a(S'criminal'
F4.9199999999999999
tp1758
a(S'ledge'
F4.9299999999999997
tp1759
a(S'list'
F4.9299999999999997
tp1760
a(S'aroma'
F4.9299999999999997
tp1761
a(S'tribe'
F4.9299999999999997
tp1762
a(S'slide'
F4.9299999999999997
tp1763
a(S'quart'
F4.9299999999999997
tp1764
a(S'path'
F4.9299999999999997
tp1765
a(S'shadow'
F4.9400000000000004
tp1766
a(S'sickness'
F4.9400000000000004
tp1767
a(S'market'
F4.9500000000000002
tp1768
a(S'scroll'
F4.9500000000000002
tp1769
a(S'tap'
F4.9500000000000002
tp1770
a(S'drink'
F4.9500000000000002
tp1771
a(S'capital'
F4.9500000000000002
tp1772
a(S'swallow'
F4.9500000000000002
tp1773
a(S'powder'
F4.9500000000000002
tp1774
a(S'pane'
F4.9500000000000002
tp1775
a(S'companion'
F4.9500000000000002
tp1776
a(S'mail'
F4.96
tp1777
a(S'prism'
F4.9699999999999998
tp1778
a(S'dusk'
F4.9699999999999998
tp1779
a(S'brat'
F4.9699999999999998
tp1780
a(S'mate'
F4.9699999999999998
tp1781
a(S'blaze'
F4.9699999999999998
tp1782
a(S'red'
F4.9699999999999998
tp1783
a(S'moat'
F4.9800000000000004
tp1784
a(S'dawn'
F4.9800000000000004
tp1785
a(S'club'
F4.9800000000000004
tp1786
a(S'pack'
F4.9800000000000004
tp1787
a(S'pick'
F4.9800000000000004
tp1788
a(S'dance'
F4.9800000000000004
tp1789
a(S'solid'
F4.9800000000000004
tp1790
a(S'lead'
F4.9800000000000004
tp1791
a(S'quiz'
F4.9800000000000004
tp1792
a(S'drip'
F4.9800000000000004
tp1793
a(S'ounce'
F4.9800000000000004
tp1794
a(S'cast'
F4.9800000000000004
tp1795
a(S'copper'
F4.9800000000000004
tp1796
a(S'haze'
F4.9800000000000004
tp1797
a(S'pile'
F5
tp1798
a(S'kick'
F5
tp1799
a(S'me'
F5
tp1800
a(S'salute'
F5
tp1801
a(S'shop'
F5
tp1802
a(S'mat'
F5.0199999999999996
tp1803
a(S'blonde'
F5.0199999999999996
tp1804
a(S'maze'
F5.0199999999999996
tp1805
a(S'lock'
F5.0199999999999996
tp1806
a(S'roast'
F5.0199999999999996
tp1807
a(S'prince'
F5.0300000000000002
tp1808
a(S'appendage'
F5.0300000000000002
tp1809
a(S'hot'
F5.0300000000000002
tp1810
a(S'voice'
F5.0300000000000002
tp1811
a(S'galaxy'
F5.0300000000000002
tp1812
a(S'class'
F5.0300000000000002
tp1813
a(S'song'
F5.04
tp1814
a(S'surface'
F5.0499999999999998
tp1815
a(S'guard'
F5.0499999999999998
tp1816
a(S'crack'
F5.0499999999999998
tp1817
a(S'treasure'
F5.0499999999999998
tp1818
a(S'soccer'
F5.0499999999999998
tp1819
a(S'cube'
F5.0499999999999998
tp1820
a(S'twine'
F5.0499999999999998
tp1821
a(S'tide'
F5.0499999999999998
tp1822
a(S'fishing'
F5.0499999999999998
tp1823
a(S'herd'
F5.0499999999999998
tp1824
a(S'court'
F5.0499999999999998
tp1825
a(S'foil'
F5.0499999999999998
tp1826
a(S'suicide'
F5.0599999999999996
tp1827
a(S'slab'
F5.0599999999999996
tp1828
a(S'gray'
F5.0599999999999996
tp1829
a(S'rim'
F5.0700000000000003
tp1830
a(S'sergeant'
F5.0700000000000003
tp1831
a(S'lane'
F5.0700000000000003
tp1832
a(S'carbon'
F5.0700000000000003
tp1833
a(S'elm'
F5.0700000000000003
tp1834
a(S'plasma'
F5.0800000000000001
tp1835
a(S'fumes'
F5.0800000000000001
tp1836
a(S'navy'
F5.0800000000000001
tp1837
a(S'infection'
F5.0800000000000001
tp1838
a(S'test'
F5.0800000000000001
tp1839
a(S'swing'
F5.0800000000000001
tp1840
a(S'pavement'
F5.0800000000000001
tp1841
a(S'monster'
F5.0800000000000001
tp1842
a(S'gymnastics'
F5.0800000000000001
tp1843
a(S'hinge'
F5.0800000000000001
tp1844
a(S'racquet'
F5.0899999999999999
tp1845
a(S'fleet'
F5.0899999999999999
tp1846
a(S'perch'
F5.0899999999999999
tp1847
a(S'mermaid'
F5.0899999999999999
tp1848
a(S'armor'
F5.0899999999999999
tp1849
a(S'knock'
F5.0899999999999999
tp1850
a(S'mob'
F5.0999999999999996
tp1851
a(S'operation'
F5.0999999999999996
tp1852
a(S'shake'
F5.0999999999999996
tp1853
a(S'perspire'
F5.0999999999999996
tp1854
a(S'cross'
F5.0999999999999996
tp1855
a(S'patient'
F5.1100000000000003
tp1856
a(S'honeymoon'
F5.1100000000000003
tp1857
a(S'morning'
F5.1100000000000003
tp1858
a(S'violet'
F5.1200000000000001
tp1859
a(S'colonel'
F5.1200000000000001
tp1860
a(S'vampire'
F5.1200000000000001
tp1861
a(S'smile'
F5.1200000000000001
tp1862
a(S'case'
F5.1200000000000001
tp1863
a(S'drill'
F5.1200000000000001
tp1864
a(S'spring'
F5.1200000000000001
tp1865
a(S'sunrise'
F5.1299999999999999
tp1866
a(S'warrior'
F5.1299999999999999
tp1867
a(S'venom'
F5.1299999999999999
tp1868
a(S'hook'
F5.1299999999999999
tp1869
a(S'shield'
F5.1299999999999999
tp1870
a(S'stable'
F5.1299999999999999
tp1871
a(S'virus'
F5.1299999999999999
tp1872
a(S'word'
F5.1299999999999999
tp1873
a(S'fly'
F5.1399999999999997
tp1874
a(S'circle'
F5.1399999999999997
tp1875
a(S'stump'
F5.1399999999999997
tp1876
a(S'exam'
F5.1399999999999997
tp1877
a(S'volume'
F5.1399999999999997
tp1878
a(S'frozen'
F5.1500000000000004
tp1879
a(S'bald'
F5.1500000000000004
tp1880
a(S'square'
F5.1500000000000004
tp1881
a(S'guest'
F5.1500000000000004
tp1882
a(S'music'
F5.1500000000000004
tp1883
a(S'cooler'
F5.1500000000000004
tp1884
a(S'ton'
F5.1600000000000001
tp1885
a(S'oatmeal'
F5.1600000000000001
tp1886
a(S'sign'
F5.1600000000000001
tp1887
a(S'letter'
F5.1600000000000001
tp1888
a(S'chinese'
F5.1600000000000001
tp1889
a(S'veal'
F5.1600000000000001
tp1890
a(S'smoke'
F5.1600000000000001
tp1891
a(S'siren'
F5.1600000000000001
tp1892
a(S'battle'
F5.1600000000000001
tp1893
a(S'thimble'
F5.1799999999999997
tp1894
a(S'yellow'
F5.1799999999999997
tp1895
a(S'relative'
F5.1799999999999997
tp1896
a(S'parade'
F5.1900000000000004
tp1897
a(S'angle'
F5.1900000000000004
tp1898
a(S'aluminum'
F5.1900000000000004
tp1899
a(S'triangle'
F5.1900000000000004
tp1900
a(S'jack'
F5.2000000000000002
tp1901
a(S'stopper'
F5.2000000000000002
tp1902
a(S'hairy'
F5.2000000000000002
tp1903
a(S'wound'
F5.2000000000000002
tp1904
a(S'bumps'
F5.21
tp1905
a(S'bump'
F5.21
tp1906
a(S'surgery'
F5.21
tp1907
a(S'rail'
F5.21
tp1908
a(S'parcel'
F5.21
tp1909
a(S'punctuation'
F5.2199999999999998
tp1910
a(S'brake'
F5.2199999999999998
tp1911
a(S'essay'
F5.2199999999999998
tp1912
a(S'squad'
F5.2199999999999998
tp1913
a(S'friar'
F5.2199999999999998
tp1914
a(S'surf'
F5.2300000000000004
tp1915
a(S'rack'
F5.2300000000000004
tp1916
a(S'yard'
F5.2300000000000004
tp1917
a(S'trail'
F5.2300000000000004
tp1918
a(S'cruise'
F5.2300000000000004
tp1919
a(S'maple'
F5.2300000000000004
tp1920
a(S'ballet'
F5.2300000000000004
tp1921
a(S'salary'
F5.2300000000000004
tp1922
a(S'hockey'
F5.2300000000000004
tp1923
a(S'captain'
F5.2300000000000004
tp1924
a(S'funeral'
F5.2300000000000004
tp1925
a(S'contract'
F5.2400000000000002
tp1926
a(S'cents'
F5.25
tp1927
a(S'sword'
F5.25
tp1928
a(S'cent'
F5.25
tp1929
a(S'fork'
F5.25
tp1930
a(S'switch'
F5.25
tp1931
a(S'lint'
F5.25
tp1932
a(S'hoe'
F5.25
tp1933
a(S'dew'
F5.25
tp1934
a(S'school'
F5.25
tp1935
a(S'silk'
F5.2599999999999998
tp1936
a(S'prize'
F5.2599999999999998
tp1937
a(S'clove'
F5.2599999999999998
tp1938
a(S'supper'
F5.2599999999999998
tp1939
a(S'bowl'
F5.2599999999999998
tp1940
a(S'crook'
F5.2699999999999996
tp1941
a(S'grave'
F5.2699999999999996
tp1942
a(S'seam'
F5.2699999999999996
tp1943
a(S'topping'
F5.2699999999999996
tp1944
a(S'post'
F5.2699999999999996
tp1945
a(S'medicine'
F5.2699999999999996
tp1946
a(S'bolt'
F5.2699999999999996
tp1947
a(S'pail'
F5.2699999999999996
tp1948
a(S'steeple'
F5.2800000000000002
tp1949
a(S'plain'
F5.2800000000000002
tp1950
a(S'chart'
F5.2800000000000002
tp1951
a(S'bloom'
F5.2800000000000002
tp1952
a(S'noose'
F5.2800000000000002
tp1953
a(S'gift'
F5.2800000000000002
tp1954
a(S'witch'
F5.2800000000000002
tp1955
a(S'climber'
F5.2800000000000002
tp1956
a(S'sound'
F5.2800000000000002
tp1957
a(S'ditch'
F5.2800000000000002
tp1958
a(S'banquet'
F5.29
tp1959
a(S'handle'
F5.29
tp1960
a(S'tourist'
F5.29
tp1961
a(S'world'
F5.29
tp1962
a(S'skull'
F5.29
tp1963
a(S'napkin'
F5.29
tp1964
a(S'noise'
F5.29
tp1965
a(S'hive'
F5.2999999999999998
tp1966
a(S'reader'
F5.2999999999999998
tp1967
a(S'jelly'
F5.2999999999999998
tp1968
a(S'chip'
F5.2999999999999998
tp1969
a(S'pot'
F5.2999999999999998
tp1970
a(S'library'
F5.2999999999999998
tp1971
a(S'rainbow'
F5.3099999999999996
tp1972
a(S'plane'
F5.3099999999999996
tp1973
a(S'circus'
F5.3099999999999996
tp1974
a(S'sketch'
F5.3099999999999996
tp1975
a(S'geyser'
p1976
F5.3099999999999996
tp1977
a(S'groom'
F5.3099999999999996
tp1978
a(S'match'
F5.3099999999999996
tp1979
a(S'scratch'
F5.3099999999999996
tp1980
a(S'pet'
F5.3200000000000003
tp1981
a(S'brain'
F5.3200000000000003
tp1982
a(S'sky'
F5.3200000000000003
tp1983
a(S'cloak'
F5.3200000000000003
tp1984
a(S'stadium'
F5.3200000000000003
tp1985
a(S'kid'
F5.3200000000000003
tp1986
a(S'slime'
F5.3200000000000003
tp1987
a(S'toys'
F5.3200000000000003
tp1988
a(S'adolescent'
F5.3200000000000003
tp1989
a(S'juggler'
p1990
F5.3200000000000003
tp1991
a(S'toy'
F5.3200000000000003
tp1992
a(S'tool'
F5.3300000000000001
tp1993
a(S'stocking'
F5.3300000000000001
tp1994
a(S'convent'
F5.3300000000000001
tp1995
a(S'tools'
F5.3300000000000001
tp1996
a(S'dial'
F5.3300000000000001
tp1997
a(S'crow'
F5.3300000000000001
tp1998
a(S'lace'
F5.3300000000000001
tp1999
a(S'oats'
F5.3300000000000001
tp2000
a(S'ash'
F5.3300000000000001
tp2001
a(S'pit'
F5.3300000000000001
tp2002
a(S'sex'
F5.3300000000000001
tp2003
a(S'giant'
F5.3300000000000001
tp2004
a(S'hug'
F5.3399999999999999
tp2005
a(S'gas'
F5.3399999999999999
tp2006
a(S'mutton'
F5.3399999999999999
tp2007
a(S'referee'
F5.3399999999999999
tp2008
a(S'crowd'
F5.3399999999999999
tp2009
a(S'novel'
F5.3399999999999999
tp2010
a(S'thunder'
F5.3499999999999996
tp2011
a(S'hood'
F5.3499999999999996
tp2012
a(S'whip'
F5.3499999999999996
tp2013
a(S'smog'
F5.3499999999999996
tp2014
a(S'cough'
F5.3499999999999996
tp2015
a(S'college'
F5.3499999999999996
tp2016
a(S'cup'
F5.3499999999999996
tp2017
a(S'symphony'
F5.3499999999999996
tp2018
a(S'bill'
F5.3600000000000003
tp2019
a(S'sash'
F5.3600000000000003
tp2020
a(S'silver'
F5.3600000000000003
tp2021
a(S'stake'
F5.3600000000000003
tp2022
a(S'feast'
F5.3600000000000003
tp2023
a(S'doll'
F5.3600000000000003
tp2024
a(S'mare'
F5.3700000000000001
tp2025
a(S'ram'
F5.3700000000000001
tp2026
a(S'crumb'
F5.3700000000000001
tp2027
a(S'candle'
F5.3700000000000001
tp2028
a(S'seasoning'
F5.3700000000000001
tp2029
a(S'room'
F5.3700000000000001
tp2030
a(S'mummy'
F5.3799999999999999
tp2031
a(S'dandelion'
F5.3799999999999999
tp2032
a(S'vanilla'
F5.3799999999999999
tp2033
a(S'molecule'
F5.3799999999999999
tp2034
a(S'dinner'
F5.3799999999999999
tp2035
a(S'deck'
F5.3799999999999999
tp2036
a(S'date'
F5.3799999999999999
tp2037
a(S'light'
F5.3899999999999997
tp2038
a(S'vault'
F5.3899999999999997
tp2039
a(S'oregano'
F5.3899999999999997
tp2040
a(S'magnet'
F5.3899999999999997
tp2041
a(S'mule'
F5.3899999999999997
tp2042
a(S'bubble'
F5.3899999999999997
tp2043
a(S'worker'
F5.4000000000000004
tp2044
a(S'picnic'
F5.4000000000000004
tp2045
a(S'chick'
F5.4000000000000004
tp2046
a(S'wind'
F5.4000000000000004
tp2047
a(S'string'
F5.4000000000000004
tp2048
a(S'bleach'
F5.4000000000000004
tp2049
a(S'cable'
F5.4000000000000004
tp2050
a(S'president'
F5.4000000000000004
tp2051
a(S'whiskers'
F5.4100000000000001
tp2052
a(S'punch'
F5.4100000000000001
tp2053
a(S'suit'
F5.4100000000000001
tp2054
a(S'synagogue'
F5.4100000000000001
tp2055
a(S'latch'
F5.4100000000000001
tp2056
a(S'city'
F5.4100000000000001
tp2057
a(S'application'
F5.4199999999999999
tp2058
a(S'dandruff'
F5.4199999999999999
tp2059
a(S'ham'
F5.4199999999999999
tp2060
a(S'lightning'
F5.4199999999999999
tp2061
a(S'cloud'
F5.4199999999999999
tp2062
a(S'junk'
F5.4299999999999997
tp2063
a(S'bass'
F5.4299999999999997
tp2064
a(S'diving'
F5.4299999999999997
tp2065
a(S'pal'
F5.4299999999999997
tp2066
a(S'curb'
F5.4299999999999997
tp2067
a(S'peer'
F5.4299999999999997
tp2068
a(S'oxygen'
F5.4299999999999997
tp2069
a(S'ground'
F5.4400000000000004
tp2070
a(S'fog'
F5.4400000000000004
tp2071
a(S'store'
F5.4400000000000004
tp2072
a(S'seal'
F5.4400000000000004
tp2073
a(S'knight'
F5.4400000000000004
tp2074
a(S'stem'
F5.4400000000000004
tp2075
a(S'monastery'
F5.4400000000000004
tp2076
a(S'husband'
F5.4500000000000002
tp2077
a(S'wick'
F5.4500000000000002
tp2078
a(S'custard'
F5.4500000000000002
tp2079
a(S'hide'
F5.4500000000000002
tp2080
a(S'park'
F5.4500000000000002
tp2081
a(S'dot'
F5.4500000000000002
tp2082
a(S'actor'
F5.4500000000000002
tp2083
a(S'conditioner'
F5.4500000000000002
tp2084
a(S'oven'
F5.4500000000000002
tp2085
a(S'buddy'
F5.4500000000000002
tp2086
a(S'sock'
F5.46
tp2087
a(S'nest'
F5.46
tp2088
a(S'flannel'
F5.46
tp2089
a(S'green'
F5.46
tp2090
a(S'socks'
F5.46
tp2091
a(S'kitten'
F5.46
tp2092
a(S'lunch'
F5.46
tp2093
a(S'moth'
F5.46
tp2094
a(S'sheet'
F5.46
tp2095
a(S'monkey'
F5.46
tp2096
a(S'sheets'
F5.46
tp2097
a(S'net'
F5.46
tp2098
a(S'miner'
F5.4699999999999998
tp2099
a(S'twig'
F5.4699999999999998
tp2100
a(S'sunshine'
F5.4699999999999998
tp2101
a(S'fawn'
F5.4699999999999998
tp2102
a(S'wax'
F5.4699999999999998
tp2103
a(S'mouth'
F5.4699999999999998
tp2104
a(S'iron'
F5.4699999999999998
tp2105
a(S'floor'
F5.4699999999999998
tp2106
a(S'fuel'
F5.4699999999999998
tp2107
a(S'mother'
F5.4699999999999998
tp2108
a(S'scar'
F5.4800000000000004
tp2109
a(S'trench'
F5.4800000000000004
tp2110
a(S'nurse'
F5.4800000000000004
tp2111
a(S'coal'
F5.4800000000000004
tp2112
a(S'road'
F5.4800000000000004
tp2113
a(S'mussel'
F5.4800000000000004
tp2114
a(S'male'
F5.4800000000000004
tp2115
a(S'station'
F5.4800000000000004
tp2116
a(S'zipper'
F5.4800000000000004
tp2117
a(S'victim'
F5.4900000000000002
tp2118
a(S'cathedral'
F5.4900000000000002
tp2119
a(S'vein'
F5.4900000000000002
tp2120
a(S'dragon'
F5.4900000000000002
tp2121
a(S'partner'
F5.4900000000000002
tp2122
a(S'badge'
F5.4900000000000002
tp2123
a(S'gull'
p2124
F5.5
tp2125
a(S'signal'
F5.5
tp2126
a(S'journal'
F5.5
tp2127
a(S'concrete'
F5.5
tp2128
a(S'party'
F5.5
tp2129
a(S'rectangle'
F5.5
tp2130
a(S'skate'
F5.5
tp2131
a(S'tire'
F5.5099999999999998
tp2132
a(S'injury'
F5.5099999999999998
tp2133
a(S'tunnel'
F5.5099999999999998
tp2134
a(S'dirt'
F5.5099999999999998
tp2135
a(S'umpire'
F5.5099999999999998
tp2136
a(S'soot'
F5.5099999999999998
tp2137
a(S'coast'
F5.5099999999999998
tp2138
a(S'oak'
F5.5099999999999998
tp2139
a(S'bark'
F5.5099999999999998
tp2140
a(S'sneeze'
F5.5099999999999998
tp2141
a(S'people'
F5.5099999999999998
tp2142
a(S'corn'
F5.5099999999999998
tp2143
a(S'town'
F5.5199999999999996
tp2144
a(S'letters'
F5.5199999999999996
tp2145
a(S'dune'
F5.5199999999999996
tp2146
a(S'lens'
F5.5199999999999996
tp2147
a(S'farm'
F5.5300000000000002
tp2148
a(S'fan'
F5.5300000000000002
tp2149
a(S'brass'
F5.5300000000000002
tp2150
a(S'candidate'
F5.5300000000000002
tp2151
a(S'map'
F5.5300000000000002
tp2152
a(S'arm'
F5.5300000000000002
tp2153
a(S'wheel'
F5.5300000000000002
tp2154
a(S'master'
F5.5300000000000002
tp2155
a(S'spool'
F5.5300000000000002
tp2156
a(S'clam'
F5.5300000000000002
tp2157
a(S'ivy'
F5.54
tp2158
a(S'drug'
F5.54
tp2159
a(S'root'
F5.54
tp2160
a(S'boot'
F5.54
tp2161
a(S'king'
F5.54
tp2162
a(S'herb'
F5.54
tp2163
a(S'wedding'
F5.54
tp2164
a(S'toast'
F5.54
tp2165
a(S'tennis'
F5.54
tp2166
a(S'biscuit'
F5.54
tp2167
a(S'screwdriver'
F5.54
tp2168
a(S'witness'
F5.54
tp2169
a(S'hallway'
F5.54
tp2170
a(S'stairs'
F5.54
tp2171
a(S'dancer'
F5.54
tp2172
a(S'stair'
F5.54
tp2173
a(S'choir'
F5.54
tp2174
a(S'boots'
F5.54
tp2175
a(S'crater'
F5.5499999999999998
tp2176
a(S'sail'
F5.5499999999999998
tp2177
a(S'gang'
F5.5499999999999998
tp2178
a(S'lid'
F5.5499999999999998
tp2179
a(S'rider'
F5.5499999999999998
tp2180
a(S'wheat'
F5.5499999999999998
tp2181
a(S'spike'
F5.5499999999999998
tp2182
a(S'stranger'
F5.5499999999999998
tp2183
a(S'conductor'
F5.5499999999999998
tp2184
a(S'teller'
F5.5499999999999998
tp2185
a(S'tie'
F5.5499999999999998
tp2186
a(S'dresser'
F5.5599999999999996
tp2187
a(S'magician'
F5.5599999999999996
tp2188
a(S'cigar'
F5.5599999999999996
tp2189
a(S'berry'
F5.5599999999999996
tp2190
a(S'canary'
F5.5599999999999996
tp2191
a(S'princess'
F5.5599999999999996
tp2192
a(S'plaque'
F5.5599999999999996
tp2193
a(S'globe'
F5.5700000000000003
tp2194
a(S'throat'
F5.5700000000000003
tp2195
a(S'web'
F5.5700000000000003
tp2196
a(S'starch'
F5.5700000000000003
tp2197
a(S'drawing'
F5.5700000000000003
tp2198
a(S'burglar'
F5.5800000000000001
tp2199
a(S'lady'
F5.5800000000000001
tp2200
a(S'twin'
F5.5800000000000001
tp2201
a(S'lover'
F5.5800000000000001
tp2202
a(S'visitor'
F5.5800000000000001
tp2203
a(S'secretary'
F5.5800000000000001
tp2204
a(S'chorus'
F5.5800000000000001
tp2205
a(S'lawyer'
F5.5800000000000001
tp2206
a(S'dungeon'
F5.5800000000000001
tp2207
a(S'buggy'
F5.5800000000000001
tp2208
a(S'whistle'
F5.5800000000000001
tp2209
a(S'stage'
F5.5899999999999999
tp2210
a(S'pocket'
F5.5899999999999999
tp2211
a(S'medal'
F5.5899999999999999
tp2212
a(S'jam'
F5.5899999999999999
tp2213
a(S'pen'
F5.5899999999999999
tp2214
a(S'pole'
F5.5899999999999999
tp2215
a(S'star'
F5.5899999999999999
tp2216
a(S'broth'
F5.5899999999999999
tp2217
a(S'stars'
F5.5899999999999999
tp2218
a(S'hand'
F5.5999999999999996
tp2219
a(S'submarine'
F5.5999999999999996
tp2220
a(S'shelter'
F5.5999999999999996
tp2221
a(S'oil'
F5.5999999999999996
tp2222
a(S'member'
F5.5999999999999996
tp2223
a(S'tusk'
F5.5999999999999996
tp2224
a(S'bat'
F5.5999999999999996
tp2225
a(S'moss'
F5.5999999999999996
tp2226
a(S'nail'
F5.5999999999999996
tp2227
a(S'cavity'
F5.5999999999999996
tp2228
a(S'card'
F5.6100000000000003
tp2229
a(S'bead'
F5.6100000000000003
tp2230
a(S'pepper'
F5.6100000000000003
tp2231
a(S'cards'
F5.6100000000000003
tp2232
a(S'spade'
F5.6100000000000003
tp2233
a(S'sleeve'
F5.6100000000000003
tp2234
a(S'bouquet'
F5.6200000000000001
tp2235
a(S'flower'
F5.6200000000000001
tp2236
a(S'news'
F5.6200000000000001
tp2237
a(S'grove'
F5.6200000000000001
tp2238
a(S'tape'
F5.6200000000000001
tp2239
a(S'tomb'
F5.6200000000000001
tp2240
a(S'grain'
F5.6299999999999999
tp2241
a(S'eagle'
F5.6299999999999999
tp2242
a(S'ocean'
F5.6299999999999999
tp2243
a(S'concert'
F5.6299999999999999
tp2244
a(S'disease'
F5.6299999999999999
tp2245
a(S'mints'
F5.6299999999999999
tp2246
a(S'writer'
F5.6299999999999999
tp2247
a(S'nicotine'
F5.6299999999999999
tp2248
a(S'cafe'
F5.6399999999999997
tp2249
a(S'purse'
F5.6399999999999997
tp2250
a(S'buckle'
F5.6399999999999997
tp2251
a(S'toad'
F5.6399999999999997
tp2252
a(S'planet'
F5.6399999999999997
tp2253
a(S'booth'
F5.6399999999999997
tp2254
a(S'mustard'
F5.6399999999999997
tp2255
a(S'tack'
F5.6399999999999997
tp2256
a(S'serpent'
F5.6399999999999997
tp2257
a(S'poison'
F5.6500000000000004
tp2258
a(S'office'
F5.6500000000000004
tp2259
a(S'artist'
F5.6500000000000004
tp2260
a(S'elders'
F5.6500000000000004
tp2261
a(S'animal'
F5.6500000000000004
tp2262
a(S'lung'
F5.6500000000000004
tp2263
a(S'gem'
F5.6500000000000004
tp2264
a(S'toaster'
F5.6600000000000001
tp2265
a(S'pupil'
F5.6600000000000001
tp2266
a(S'clarinet'
F5.6600000000000001
tp2267
a(S'chapel'
F5.6600000000000001
tp2268
a(S'ale'
F5.6600000000000001
tp2269
a(S'stool'
F5.6600000000000001
tp2270
a(S'bourbon'
F5.6600000000000001
tp2271
a(S'waist'
F5.6600000000000001
tp2272
a(S'rake'
F5.6600000000000001
tp2273
a(S'flute'
F5.6600000000000001
tp2274
a(S'brush'
F5.6600000000000001
tp2275
a(S'report'
F5.6699999999999999
tp2276
a(S'air'
F5.6699999999999999
tp2277
a(S'lieutenant'
F5.6699999999999999
tp2278
a(S'shoulder'
F5.6699999999999999
tp2279
a(S'ivory'
F5.6699999999999999
tp2280
a(S'lettuce'
F5.6699999999999999
tp2281
a(S'lizard'
F5.6699999999999999
tp2282
a(S'decoration'
F5.6699999999999999
tp2283
a(S'knuckle'
F5.6699999999999999
tp2284
a(S'fighter'
F5.6699999999999999
tp2285
a(S'hobo'
F5.6699999999999999
tp2286
a(S'timber'
F5.6699999999999999
tp2287
a(S'trousers'
F5.6699999999999999
tp2288
a(S'lever'
F5.6799999999999997
tp2289
a(S'gold'
F5.6799999999999997
tp2290
a(S'woman'
F5.6799999999999997
tp2291
a(S'face'
F5.6799999999999997
tp2292
a(S'loaf'
F5.6799999999999997
tp2293
a(S'dorm'
F5.6799999999999997
tp2294
a(S'cowboy'
F5.6799999999999997
tp2295
a(S'garbage'
F5.6799999999999997
tp2296
a(S'soldier'
F5.6799999999999997
tp2297
a(S'mink'
F5.6799999999999997
tp2298
a(S'velvet'
F5.6799999999999997
tp2299
a(S'rabbi'
F5.6799999999999997
tp2300
a(S'dollar'
F5.6799999999999997
tp2301
a(S'coke'
F5.6799999999999997
tp2302
a(S'oar'
F5.6799999999999997
tp2303
a(S'ducks'
F5.6799999999999997
tp2304
a(S'duck'
F5.6799999999999997
tp2305
a(S'dollars'
F5.6799999999999997
tp2306
a(S'carpet'
F5.6799999999999997
tp2307
a(S'moon'
F5.6799999999999997
tp2308
a(S'beard'
F5.6799999999999997
tp2309
a(S'shovel'
F5.6799999999999997
tp2310
a(S'scout'
F5.6799999999999997
tp2311
a(S'salt'
F5.6900000000000004
tp2312
a(S'tick'
F5.6900000000000004
tp2313
a(S'lab'
F5.6900000000000004
tp2314
a(S'rag'
F5.6900000000000004
tp2315
a(S'camp'
F5.6900000000000004
tp2316
a(S'gate'
F5.6900000000000004
tp2317
a(S'vest'
F5.6900000000000004
tp2318
a(S'coral'
F5.6900000000000004
tp2319
a(S'bush'
F5.6900000000000004
tp2320
a(S'oyster'
F5.6900000000000004
tp2321
a(S'plow'
F5.6900000000000004
tp2322
a(S'object'
F5.6900000000000004
tp2323
a(S'ornament'
F5.6900000000000004
tp2324
a(S'bank'
F5.6900000000000004
tp2325
a(S'hair'
F5.7000000000000002
tp2326
a(S'crutch'
F5.7000000000000002
tp2327
a(S'fort'
F5.7000000000000002
tp2328
a(S'aspirin'
F5.7000000000000002
tp2329
a(S'lobby'
F5.7000000000000002
tp2330
a(S'sack'
F5.7000000000000002
tp2331
a(S'marsh'
F5.7000000000000002
tp2332
a(S'vase'
F5.7000000000000002
tp2333
a(S'soil'
F5.7000000000000002
tp2334
a(S'lake'
F5.7000000000000002
tp2335
a(S'crocodile'
F5.7000000000000002
tp2336
a(S'fangs'
F5.7000000000000002
tp2337
a(S'coin'
F5.7000000000000002
tp2338
a(S'sister'
F5.71
tp2339
a(S'uncle'
F5.71
tp2340
a(S'wallet'
F5.71
tp2341
a(S'scotch'
F5.71
tp2342
a(S'palace'
F5.71
tp2343
a(S'tank'
F5.71
tp2344
a(S'leather'
F5.71
tp2345
a(S'dagger'
F5.7199999999999998
tp2346
a(S'cocktail'
F5.7199999999999998
tp2347
a(S'vodka'
F5.7199999999999998
tp2348
a(S'chocolate'
F5.7199999999999998
tp2349
a(S'skillet'
F5.7199999999999998
tp2350
a(S'pope'
F5.7199999999999998
tp2351
a(S'mug'
F5.7199999999999998
tp2352
a(S'child'
F5.7199999999999998
tp2353
a(S'dishwasher'
F5.7300000000000004
tp2354
a(S'glue'
F5.7300000000000004
tp2355
a(S'lobe'
F5.7300000000000004
tp2356
a(S'paint'
F5.7300000000000004
tp2357
a(S'canal'
F5.7300000000000004
tp2358
a(S'jewelry'
F5.7300000000000004
tp2359
a(S'jewel'
F5.7300000000000004
tp2360
a(S'orange'
F5.7400000000000002
tp2361
a(S'slippers'
F5.7400000000000002
tp2362
a(S'spatula'
F5.7400000000000002
tp2363
a(S'atlas'
F5.7400000000000002
tp2364
a(S'china'
F5.7400000000000002
tp2365
a(S'bride'
F5.7400000000000002
tp2366
a(S'suede'
F5.7400000000000002
tp2367
a(S'robe'
F5.7400000000000002
tp2368
a(S'plate'
F5.7400000000000002
tp2369
a(S'pan'
F5.7400000000000002
tp2370
a(S'microscope'
F5.7400000000000002
tp2371
a(S'couch'
F5.7400000000000002
tp2372
a(S'petals'
F5.7400000000000002
tp2373
a(S'bone'
F5.75
tp2374
a(S'doe'
F5.75
tp2375
a(S'dog'
F5.75
tp2376
a(S'ruby'
F5.75
tp2377
a(S'linen'
F5.75
tp2378
a(S'elk'
F5.75
tp2379
a(S'baseball'
F5.75
tp2380
a(S'doctor'
F5.75
tp2381
a(S'heel'
F5.75
tp2382
a(S'minister'
F5.75
tp2383
a(S'football'
F5.75
tp2384
a(S'pimple'
F5.75
tp2385
a(S'envelope'
F5.75
tp2386
a(S'stove'
F5.75
tp2387
a(S'noodles'
F5.75
tp2388
a(S'snail'
F5.75
tp2389
a(S'europe'
F5.7599999999999998
tp2390
a(S'cloth'
F5.7599999999999998
tp2391
a(S'industry'
F5.7599999999999998
tp2392
a(S'chest'
F5.7599999999999998
tp2393
a(S'jet'
F5.7599999999999998
tp2394
a(S'rodent'
F5.7599999999999998
tp2395
a(S'mongoose'
F5.7599999999999998
tp2396
a(S'lawn'
F5.7599999999999998
tp2397
a(S'pier'
F5.7599999999999998
tp2398
a(S'trash'
F5.7599999999999998
tp2399
a(S'hammer'
F5.7699999999999996
tp2400
a(S'dock'
F5.7699999999999996
tp2401
a(S'soap'
F5.7699999999999996
tp2402
a(S'money'
F5.7699999999999996
tp2403
a(S'pigeon'
F5.7699999999999996
tp2404
a(S'mustache'
F5.7699999999999996
tp2405
a(S'apartment'
F5.7699999999999996
tp2406
a(S'baby'
F5.7699999999999996
tp2407
a(S'twilight'
F5.7699999999999996
tp2408
a(S'ski'
F5.7699999999999996
tp2409
a(S'bird'
F5.7699999999999996
tp2410
a(S'hog'
F5.7699999999999996
tp2411
a(S'jar'
F5.7699999999999996
tp2412
a(S'bun'
F5.7699999999999996
tp2413
a(S'rain'
F5.7699999999999996
tp2414
a(S'earth'
F5.7699999999999996
tp2415
a(S'tube'
F5.7699999999999996
tp2416
a(S'servant'
F5.7699999999999996
tp2417
a(S'dime'
F5.7800000000000002
tp2418
a(S'kiss'
F5.7800000000000002
tp2419
a(S'saliva'
F5.7800000000000002
tp2420
a(S'bow'
F5.7800000000000002
tp2421
a(S'insect'
F5.7800000000000002
tp2422
a(S'orchard'
F5.7800000000000002
tp2423
a(S'employee'
F5.7800000000000002
tp2424
a(S'children'
F5.7800000000000002
tp2425
a(S'bruise'
F5.7800000000000002
tp2426
a(S'chicken'
F5.79
tp2427
a(S'train'
F5.79
tp2428
a(S'desk'
F5.79
tp2429
a(S'egg'
F5.79
tp2430
a(S'orchestra'
F5.79
tp2431
a(S'aunt'
F5.79
tp2432
a(S'zoo'
F5.79
tp2433
a(S'asphalt'
F5.79
tp2434
a(S'cardinal'
F5.79
tp2435
a(S'tent'
F5.79
tp2436
a(S'needle'
F5.79
tp2437
a(S'eggs'
F5.79
tp2438
a(S'stew'
F5.79
tp2439
a(S'cave'
F5.79
tp2440
a(S'digit'
F5.79
tp2441
a(S'banner'
F5.7999999999999998
tp2442
a(S'text'
F5.7999999999999998
tp2443
a(S'product'
F5.7999999999999998
tp2444
a(S'bluejay'
F5.7999999999999998
tp2445
a(S'chemist'
F5.7999999999999998
tp2446
a(S'wife'
F5.7999999999999998
tp2447
a(S'captive'
F5.7999999999999998
tp2448
a(S'throne'
F5.7999999999999998
tp2449
a(S'fiddle'
F5.7999999999999998
tp2450
a(S'blade'
F5.7999999999999998
tp2451
a(S'sink'
F5.7999999999999998
tp2452
a(S'bible'
F5.8099999999999996
tp2453
a(S'wire'
F5.8099999999999996
tp2454
a(S'organ'
F5.8099999999999996
tp2455
a(S'bear'
F5.8099999999999996
tp2456
a(S'wood'
F5.8099999999999996
tp2457
a(S'pork'
F5.8099999999999996
tp2458
a(S'spades'
F5.8099999999999996
tp2459
a(S'pin'
F5.8099999999999996
tp2460
a(S'drum'
F5.8099999999999996
tp2461
a(S'puzzle'
F5.8099999999999996
tp2462
a(S'flame'
F5.8099999999999996
tp2463
a(S'church'
F5.8200000000000003
tp2464
a(S'sea'
F5.8200000000000003
tp2465
a(S'typewriter'
F5.8200000000000003
tp2466
a(S'roof'
F5.8200000000000003
tp2467
a(S'crown'
F5.8200000000000003
tp2468
a(S'yarn'
F5.8200000000000003
tp2469
a(S'earring'
F5.8200000000000003
tp2470
a(S'steel'
F5.8200000000000003
tp2471
a(S'cupboard'
F5.8200000000000003
tp2472
a(S'gown'
F5.8200000000000003
tp2473
a(S'barrier'
F5.8200000000000003
tp2474
a(S'article'
F5.8200000000000003
tp2475
a(S'quill'
F5.8200000000000003
tp2476
a(S'wings'
F5.8200000000000003
tp2477
a(S'staple'
F5.8300000000000001
tp2478
a(S'band'
F5.8300000000000001
tp2479
a(S'traffic'
F5.8300000000000001
tp2480
a(S'crystal'
F5.8300000000000001
tp2481
a(S'leader'
F5.8300000000000001
tp2482
a(S'odor'
F5.8300000000000001
tp2483
a(S'neck'
F5.8300000000000001
tp2484
a(S'gravel'
F5.8300000000000001
tp2485
a(S'winter'
F5.8300000000000001
tp2486
a(S'beer'
F5.8300000000000001
tp2487
a(S'coat'
F5.8300000000000001
tp2488
a(S'bishop'
F5.8300000000000001
tp2489
a(S'river'
F5.8300000000000001
tp2490
a(S'lobster'
F5.8399999999999999
tp2491
a(S'trailer'
F5.8399999999999999
tp2492
a(S'jello'
F5.8399999999999999
tp2493
a(S'ice cream'
F5.8399999999999999
tp2494
a(S'jail'
F5.8399999999999999
tp2495
a(S'wicker'
F5.8399999999999999
tp2496
a(S'nickel'
F5.8399999999999999
tp2497
a(S'chisel'
F5.8399999999999999
tp2498
a(S'fish'
F5.8399999999999999
tp2499
a(S'food'
F5.8399999999999999
tp2500
a(S'street'
F5.8399999999999999
tp2501
a(S'wall'
F5.8499999999999996
tp2502
a(S'page'
F5.8499999999999996
tp2503
a(S'family'
F5.8499999999999996
tp2504
a(S'chain'
F5.8499999999999996
tp2505
a(S'pearl'
F5.8499999999999996
tp2506
a(S'vessel'
F5.8499999999999996
tp2507
a(S'movie'
F5.8499999999999996
tp2508
a(S'fence'
F5.8499999999999996
tp2509
a(S'hut'
F5.8499999999999996
tp2510
a(S'palm'
F5.8499999999999996
tp2511
a(S'grape'
F5.8499999999999996
tp2512
a(S'pad'
F5.8499999999999996
tp2513
a(S'dynamite'
F5.8600000000000003
tp2514
a(S'spice'
F5.8600000000000003
tp2515
a(S'roses'
F5.8600000000000003
tp2516
a(S'rose'
F5.8600000000000003
tp2517
a(S'limb'
F5.8600000000000003
tp2518
a(S'tractor'
F5.8600000000000003
tp2519
a(S'cape'
F5.8600000000000003
tp2520
a(S'find'
F5.8600000000000003
tp2521
a(S'orchid'
F5.8600000000000003
tp2522
a(S'rib'
F5.8600000000000003
tp2523
a(S'tray'
F5.8600000000000003
tp2524
a(S'cherry'
F5.8600000000000003
tp2525
a(S'mole'
F5.8600000000000003
tp2526
a(S'ribs'
F5.8600000000000003
tp2527
a(S'scallop'
F5.8700000000000001
tp2528
a(S'strap'
F5.8700000000000001
tp2529
a(S'tin'
F5.8700000000000001
tp2530
a(S'beverage'
F5.8700000000000001
tp2531
a(S'crops'
F5.8700000000000001
tp2532
a(S'university'
F5.8700000000000001
tp2533
a(S'calf'
F5.8799999999999999
tp2534
a(S'basketball'
F5.8799999999999999
tp2535
a(S'pine'
F5.8799999999999999
tp2536
a(S'telescope'
F5.8799999999999999
tp2537
a(S'kite'
F5.8799999999999999
tp2538
a(S'spoon'
F5.8799999999999999
tp2539
a(S'pill'
F5.8799999999999999
tp2540
a(S'photo'
F5.8799999999999999
tp2541
a(S'engine'
F5.8799999999999999
tp2542
a(S'shingle'
F5.8799999999999999
tp2543
a(S'boyfriend'
F5.8799999999999999
tp2544
a(S'cage'
F5.8799999999999999
tp2545
a(S'ring'
F5.8799999999999999
tp2546
a(S'shower'
F5.8799999999999999
tp2547
a(S'breakfast'
F5.8799999999999999
tp2548
a(S'clamp'
F5.8799999999999999
tp2549
a(S'leaf'
F5.8899999999999997
tp2550
a(S'yolk'
F5.8899999999999997
tp2551
a(S'tub'
F5.9000000000000004
tp2552
a(S'socket'
F5.9000000000000004
tp2553
a(S'package'
F5.9000000000000004
tp2554
a(S'bath'
F5.9000000000000004
tp2555
a(S'quarter'
F5.9000000000000004
tp2556
a(S'desert'
F5.9000000000000004
tp2557
a(S'paste'
F5.9000000000000004
tp2558
a(S'trunk'
F5.9000000000000004
tp2559
a(S'satin'
F5.9000000000000004
tp2560
a(S'seed'
F5.9000000000000004
tp2561
a(S'shuttle'
F5.9000000000000004
tp2562
a(S'owner'
F5.9000000000000004
tp2563
a(S'bucket'
F5.9000000000000004
tp2564
a(S'raspberry'
F5.9000000000000004
tp2565
a(S'father'
F5.9000000000000004
tp2566
a(S'possum'
F5.9000000000000004
tp2567
a(S'butterfly'
F5.9100000000000001
tp2568
a(S'coffin'
F5.9100000000000001
tp2569
a(S'brother'
F5.9100000000000001
tp2570
a(S'box'
F5.9100000000000001
tp2571
a(S'dress'
F5.9100000000000001
tp2572
a(S'horn'
F5.9100000000000001
tp2573
a(S'bomb'
F5.9100000000000001
tp2574
a(S'acre'
F5.9100000000000001
tp2575
a(S'mirror'
F5.9100000000000001
tp2576
a(S'film'
F5.9100000000000001
tp2577
a(S'magazine'
F5.9100000000000001
tp2578
a(S'puddle'
F5.9100000000000001
tp2579
a(S'building'
F5.9100000000000001
tp2580
a(S'straw'
F5.9100000000000001
tp2581
a(S'honey'
F5.9100000000000001
tp2582
a(S'anchor'
F5.9100000000000001
tp2583
a(S'brandy'
F5.9100000000000001
tp2584
a(S'penny'
F5.9199999999999999
tp2585
a(S'garden'
F5.9199999999999999
tp2586
a(S'africa'
F5.9199999999999999
tp2587
a(S'scissors'
F5.9199999999999999
tp2588
a(S'crab'
F5.9199999999999999
tp2589
a(S'granite'
F5.9199999999999999
tp2590
a(S'pickles'
F5.9299999999999997
tp2591
a(S'sponge'
F5.9299999999999997
tp2592
a(S'camel'
F5.9299999999999997
tp2593
a(S'sardine'
F5.9299999999999997
tp2594
a(S'grass'
F5.9299999999999997
tp2595
a(S'cottage'
F5.9299999999999997
tp2596
a(S'bee'
F5.9299999999999997
tp2597
a(S'jug'
F5.9299999999999997
tp2598
a(S'kettle'
F5.9299999999999997
tp2599
a(S'doughnut'
F5.9299999999999997
tp2600
a(S'shell'
F5.9299999999999997
tp2601
a(S'cancer'
F5.9299999999999997
tp2602
a(S'chili'
F5.9299999999999997
tp2603
a(S'vapor'
F5.9299999999999997
tp2604
a(S'gym'
F5.9299999999999997
tp2605
a(S'trout'
F5.9299999999999997
tp2606
a(S'pickle'
F5.9299999999999997
tp2607
a(S'basket'
F5.9299999999999997
tp2608
a(S'block'
F5.9299999999999997
tp2609
a(S'vine'
F5.9299999999999997
tp2610
a(S'tar'
F5.9299999999999997
tp2611
a(S'sidewalk'
F5.9299999999999997
tp2612
a(S'wrench'
F5.9400000000000004
tp2613
a(S'loft'
F5.9400000000000004
tp2614
a(S'breeze'
F5.9400000000000004
tp2615
a(S'mall'
F5.9400000000000004
tp2616
a(S'birds'
F5.9400000000000004
tp2617
a(S'marine'
F5.9500000000000002
tp2618
a(S'quail'
F5.9500000000000002
tp2619
a(S'cork'
F5.9500000000000002
tp2620
a(S'spider'
F5.9500000000000002
tp2621
a(S'creek'
F5.9500000000000002
tp2622
a(S'pilot'
F5.9500000000000002
tp2623
a(S'closet'
F5.9500000000000002
tp2624
a(S'cinnamon'
F5.9500000000000002
tp2625
a(S'biologist'
F5.9500000000000002
tp2626
a(S'pedal'
F5.9500000000000002
tp2627
a(S'door'
F5.9500000000000002
tp2628
a(S'highway'
F5.9500000000000002
tp2629
a(S'rum'
F5.96
tp2630
a(S'paper'
F5.96
tp2631
a(S'shoe'
F5.96
tp2632
a(S'toe'
F5.96
tp2633
a(S'weed'
F5.96
tp2634
a(S'soda'
F5.96
tp2635
a(S'chowder'
F5.9699999999999998
tp2636
a(S'guardian'
F5.9699999999999998
tp2637
a(S'brook'
F5.9699999999999998
tp2638
a(S'brick'
F5.9699999999999998
tp2639
a(S'hat'
F5.9699999999999998
tp2640
a(S'paddle'
F5.9800000000000004
tp2641
a(S'cone'
F5.9800000000000004
tp2642
a(S'shark'
F5.9800000000000004
tp2643
a(S'helmet'
F5.9800000000000004
tp2644
a(S'tortoise'
F5.9800000000000004
tp2645
a(S'plants'
F5.9800000000000004
tp2646
a(S'plant'
F5.9800000000000004
tp2647
a(S'head'
F5.9800000000000004
tp2648
a(S'cliff'
F5.9800000000000004
tp2649
a(S'meal'
F5.9800000000000004
tp2650
a(S'sill'
F5.9800000000000004
tp2651
a(S'ore'
F5.9800000000000004
tp2652
a(S'antler'
F5.9800000000000004
tp2653
a(S'belt'
F5.9800000000000004
tp2654
a(S'raft'
F5.9800000000000004
tp2655
a(S'bracelet'
F5.9800000000000004
tp2656
a(S'knot'
F5.9800000000000004
tp2657
a(S'lemon'
F5.9800000000000004
tp2658
a(S'property'
F5.9900000000000002
tp2659
a(S'ant'
F6
tp2660
a(S'bean'
F6
tp2661
a(S'sapphire'
F6
tp2662
a(S'mildew'
F6
tp2663
a(S'surgeon'
F6
tp2664
a(S'syrup'
F6
tp2665
a(S'stick'
F6
tp2666
a(S'frame'
F6
tp2667
a(S'caboose'
F6
tp2668
a(S'muscle'
F6
tp2669
a(S'booze'
F6
tp2670
a(S'freckle'
F6
tp2671
a(S'button'
F6
tp2672
a(S'statue'
F6
tp2673
a(S'whiskey'
F6
tp2674
a(S'juice'
F6
tp2675
a(S'sleigh'
F6
tp2676
a(S'beans'
F6
tp2677
a(S'fruit'
F6
tp2678
a(S'table'
F6
tp2679
a(S'plug'
F6
tp2680
a(S'cannon'
F6
tp2681
a(S'frosting'
F6
tp2682
a(S'hill'
F6.0199999999999996
tp2683
a(S'phone'
F6.0199999999999996
tp2684
a(S'saucer'
F6.0199999999999996
tp2685
a(S'glasses'
F6.0199999999999996
tp2686
a(S'liquid'
F6.0199999999999996
tp2687
a(S'splinter'
F6.0199999999999996
tp2688
a(S'pebble'
F6.0199999999999996
tp2689
a(S'wool'
F6.0199999999999996
tp2690
a(S'heart'
F6.0199999999999996
tp2691
a(S'mud'
F6.0199999999999996
tp2692
a(S'trombone'
F6.0199999999999996
tp2693
a(S'ceiling'
F6.0199999999999996
tp2694
a(S'bedroom'
F6.0300000000000002
tp2695
a(S'rocks'
F6.0300000000000002
tp2696
a(S'test tube'
F6.0300000000000002
tp2697
a(S'cigarette'
F6.0300000000000002
tp2698
a(S'ass'
F6.0300000000000002
tp2699
a(S'hatchet'
F6.0300000000000002
tp2700
a(S'corridor'
F6.0300000000000002
tp2701
a(S'horse'
F6.0300000000000002
tp2702
a(S'grease'
F6.0300000000000002
tp2703
a(S'rock'
F6.0300000000000002
tp2704
a(S'hands'
F6.0300000000000002
tp2705
a(S'moose'
F6.0300000000000002
tp2706
a(S'hare'
F6.0300000000000002
tp2707
a(S'container'
F6.0300000000000002
tp2708
a(S'dentist'
F6.0300000000000002
tp2709
a(S'doorway'
F6.0300000000000002
tp2710
a(S'perfume'
F6.0300000000000002
tp2711
a(S'leg'
F6.04
tp2712
a(S'rubber'
F6.04
tp2713
a(S'thread'
F6.04
tp2714
a(S'rabbit'
F6.04
tp2715
a(S'employer'
F6.04
tp2716
a(S'rice'
F6.04
tp2717
a(S'author'
F6.04
tp2718
a(S'stomach'
F6.04
tp2719
a(S'belly'
F6.04
tp2720
a(S'rifle'
F6.04
tp2721
a(S'manager'
F6.04
tp2722
a(S'legs'
F6.04
tp2723
a(S'clerk'
F6.0499999999999998
tp2724
a(S'hostage'
F6.0499999999999998
tp2725
a(S'shirt'
F6.0499999999999998
tp2726
a(S'gum'
F6.0499999999999998
tp2727
a(S'builder'
F6.0499999999999998
tp2728
a(S'sandals'
F6.0499999999999998
tp2729
a(S'peach'
F6.0499999999999998
tp2730
a(S'pub'
F6.0499999999999998
tp2731
a(S'snow'
F6.0499999999999998
tp2732
a(S'tulip'
F6.0499999999999998
tp2733
a(S'tea'
F6.0499999999999998
tp2734
a(S'branch'
F6.0599999999999996
tp2735
a(S'cabbage'
F6.0700000000000003
tp2736
a(S'lumber'
F6.0700000000000003
tp2737
a(S'chipmunk'
F6.0700000000000003
tp2738
a(S'tiger'
F6.0700000000000003
tp2739
a(S'land'
F6.0700000000000003
tp2740
a(S'sunset'
F6.0700000000000003
tp2741
a(S'keys'
F6.0800000000000001
tp2742
a(S'barracuda'
F6.0800000000000001
tp2743
a(S'passenger'
F6.0800000000000001
tp2744
a(S'ladder'
F6.0800000000000001
tp2745
a(S'cream'
F6.0800000000000001
tp2746
a(S'pasture'
F6.0800000000000001
tp2747
a(S'knife'
F6.0800000000000001
tp2748
a(S'bum'
F6.0800000000000001
tp2749
a(S'squirrel'
F6.0800000000000001
tp2750
a(S'key'
F6.0800000000000001
tp2751
a(S'gun'
F6.0800000000000001
tp2752
a(S'beach'
F6.0800000000000001
tp2753
a(S'hip'
F6.0800000000000001
tp2754
a(S'ball'
F6.0800000000000001
tp2755
a(S'emerald'
F6.0899999999999999
tp2756
a(S'collar'
F6.0899999999999999
tp2757
a(S'tail'
F6.0899999999999999
tp2758
a(S'book'
F6.0899999999999999
tp2759
a(S'jeep'
F6.0899999999999999
tp2760
a(S'men'
F6.0899999999999999
tp2761
a(S'owl'
F6.0899999999999999
tp2762
a(S'carrot'
F6.0899999999999999
tp2763
a(S'daisy'
F6.0899999999999999
tp2764
a(S'quilt'
F6.0899999999999999
tp2765
a(S'lamp'
F6.0899999999999999
tp2766
a(S'broom'
F6.0899999999999999
tp2767
a(S'pie'
F6.0899999999999999
tp2768
a(S'carrots'
F6.0899999999999999
tp2769
a(S'florida'
F6.0999999999999996
tp2770
a(S'balloon'
F6.0999999999999996
tp2771
a(S'icing'
F6.0999999999999996
tp2772
a(S'cub'
F6.0999999999999996
tp2773
a(S'gravy'
F6.0999999999999996
tp2774
a(S'comb'
F6.0999999999999996
tp2775
a(S'hawk'
F6.0999999999999996
tp2776
a(S'golf'
F6.0999999999999996
tp2777
a(S'laundry'
F6.0999999999999996
tp2778
a(S'hoop'
F6.0999999999999996
tp2779
a(S'material'
F6.0999999999999996
tp2780
a(S'fungus'
F6.0999999999999996
tp2781
a(S'barrel'
F6.0999999999999996
tp2782
a(S'cake'
F6.1100000000000003
tp2783
a(S'liver'
F6.1100000000000003
tp2784
a(S'soup'
F6.1100000000000003
tp2785
a(S'rat'
F6.1100000000000003
tp2786
a(S'alley'
F6.1100000000000003
tp2787
a(S'champagne'
F6.1200000000000001
tp2788
a(S'spouse'
F6.1200000000000001
tp2789
a(S'chair'
F6.1200000000000001
tp2790
a(S'pillow'
F6.1200000000000001
tp2791
a(S'tongue'
F6.1200000000000001
tp2792
a(S'flea'
F6.1200000000000001
tp2793
a(S'necklace'
F6.1200000000000001
tp2794
a(S'rug'
F6.1200000000000001
tp2795
a(S'bulb'
F6.1200000000000001
tp2796
a(S'cow'
F6.1200000000000001
tp2797
a(S'crayon'
F6.1200000000000001
tp2798
a(S'costume'
F6.1200000000000001
tp2799
a(S'mouse'
F6.1200000000000001
tp2800
a(S'cocoon'
F6.1299999999999999
tp2801
a(S'sailor'
F6.1299999999999999
tp2802
a(S'corner'
F6.1299999999999999
tp2803
a(S'violin'
F6.1299999999999999
tp2804
a(S'fire'
F6.1299999999999999
tp2805
a(S'speaker'
F6.1299999999999999
tp2806
a(S'dad'
F6.1299999999999999
tp2807
a(S'teeth'
F6.1399999999999997
tp2808
a(S'jaw'
p2809
F6.1399999999999997
tp2810
a(S'lion'
F6.1399999999999997
tp2811
a(S'skyscraper'
F6.1399999999999997
tp2812
a(S'pond'
F6.1399999999999997
tp2813
a(S'carton'
F6.1399999999999997
tp2814
a(S'clown'
F6.1399999999999997
tp2815
a(S'hiker'
F6.1399999999999997
tp2816
a(S'cheese'
F6.1399999999999997
tp2817
a(S'man'
F6.1399999999999997
tp2818
a(S'gloves'
F6.1399999999999997
tp2819
a(S'glove'
F6.1399999999999997
tp2820
a(S'olive'
F6.1399999999999997
tp2821
a(S'beetle'
F6.1500000000000004
tp2822
a(S'compass'
F6.1500000000000004
tp2823
a(S'computer'
F6.1500000000000004
tp2824
a(S'cylinder'
F6.1500000000000004
tp2825
a(S'lodge'
F6.1500000000000004
tp2826
a(S'telephone'
F6.1500000000000004
tp2827
a(S'racket'
F6.1500000000000004
tp2828
a(S'tooth'
F6.1500000000000004
tp2829
a(S'rod'
F6.1500000000000004
tp2830
a(S'vegetables'
F6.1500000000000004
tp2831
a(S'caravan'
F6.1500000000000004
tp2832
a(S'pants'
F6.1500000000000004
tp2833
a(S'butler'
F6.1600000000000001
tp2834
a(S'tobacco'
F6.1600000000000001
tp2835
a(S'anteater'
F6.1600000000000001
tp2836
a(S'pajamas'
F6.1600000000000001
tp2837
a(S'gorilla'
F6.1600000000000001
tp2838
a(S'walrus'
F6.1600000000000001
tp2839
a(S'onion'
F6.1600000000000001
tp2840
a(S'worm'
F6.1600000000000001
tp2841
a(S'nylon'
F6.1600000000000001
tp2842
a(S'seafood'
F6.1699999999999999
tp2843
a(S'jury'
F6.1699999999999999
tp2844
a(S'female'
F6.1699999999999999
tp2845
a(S'shorts'
F6.1799999999999997
tp2846
a(S'scalp'
F6.1799999999999997
tp2847
a(S'painting'
F6.1799999999999997
tp2848
a(S'indian'
F6.1799999999999997
tp2849
a(S'motel'
F6.1799999999999997
tp2850
a(S'saxophone'
F6.1799999999999997
tp2851
a(S'parent'
F6.1799999999999997
tp2852
a(S'cabinet'
F6.1799999999999997
tp2853
a(S'wagon'
F6.1799999999999997
tp2854
a(S'bassinet'
F6.1799999999999997
tp2855
a(S'tavern'
F6.1799999999999997
tp2856
a(S'bread'
F6.1799999999999997
tp2857
a(S'plum'
F6.1799999999999997
tp2858
a(S'ranch'
F6.1799999999999997
tp2859
a(S'sheep'
F6.1799999999999997
tp2860
a(S'deodorant'
F6.1900000000000004
tp2861
a(S'nephew'
F6.1900000000000004
tp2862
a(S'notes'
F6.2000000000000002
tp2863
a(S'hairspray'
F6.2000000000000002
tp2864
a(S'pelt'
F6.2000000000000002
tp2865
a(S'rooster'
F6.2000000000000002
tp2866
a(S'faucet'
F6.2000000000000002
tp2867
a(S'finger'
F6.2000000000000002
tp2868
a(S'lump'
F6.2000000000000002
tp2869
a(S'flag'
F6.2000000000000002
tp2870
a(S'knob'
F6.2000000000000002
tp2871
a(S'fingers'
F6.2000000000000002
tp2872
a(S'saddle'
F6.2000000000000002
tp2873
a(S'stub'
F6.2000000000000002
tp2874
a(S'limousine'
F6.2000000000000002
tp2875
a(S'stud'
F6.2000000000000002
tp2876
a(S'van'
F6.2000000000000002
tp2877
a(S'blanket'
F6.21
tp2878
a(S'spray'
F6.21
tp2879
a(S'house'
F6.21
tp2880
a(S'chalk'
F6.21
tp2881
a(S'cat'
F6.21
tp2882
a(S'diamond'
F6.21
tp2883
a(S'spine'
F6.2199999999999998
tp2884
a(S'goat'
F6.2199999999999998
tp2885
a(S'dough'
F6.2199999999999998
tp2886
a(S'rocket'
F6.2199999999999998
tp2887
a(S'vinegar'
F6.2199999999999998
tp2888
a(S'cobra'
F6.2300000000000004
tp2889
a(S'camera'
F6.2300000000000004
tp2890
a(S'beef'
F6.2300000000000004
tp2891
a(S'cavern'
F6.2300000000000004
tp2892
a(S'sun'
F6.2300000000000004
tp2893
a(S'garlic'
F6.2300000000000004
tp2894
a(S'marble'
F6.2300000000000004
tp2895
a(S'elevator'
F6.2300000000000004
tp2896
a(S'whale'
F6.2300000000000004
tp2897
a(S'bunny'
F6.2300000000000004
tp2898
a(S'boy'
F6.2300000000000004
tp2899
a(S'tile'
F6.2300000000000004
tp2900
a(S'salmon'
F6.2400000000000002
tp2901
a(S'frost'
F6.2400000000000002
tp2902
a(S'butter'
F6.2400000000000002
tp2903
a(S'lamb'
F6.2400000000000002
tp2904
a(S'motor'
F6.2400000000000002
tp2905
a(S'stream'
F6.2400000000000002
tp2906
a(S'fries'
F6.25
tp2907
a(S'sparrow'
F6.25
tp2908
a(S'beggar'
F6.25
tp2909
a(S'robber'
F6.25
tp2910
a(S'daughter'
F6.25
tp2911
a(S'stain'
F6.25
tp2912
a(S'heroin'
F6.25
tp2913
a(S'heroine'
p2914
F6.25
tp2915
a(S'maid'
F6.25
tp2916
a(S'wrinkle'
F6.25
tp2917
a(S'bra'
F6.25
tp2918
a(S'instrument'
F6.25
tp2919
a(S'porcupine'
F6.25
tp2920
a(S'sofa'
F6.25
tp2921
a(S'ship'
F6.25
tp2922
a(S'home'
F6.25
tp2923
a(S'shrimp'
F6.25
tp2924
a(S'mountain'
F6.25
tp2925
a(S'judge'
F6.25
tp2926
a(S'sand'
F6.25
tp2927
a(S'omelet'
F6.2599999999999998
tp2928
a(S'ink'
F6.2599999999999998
tp2929
a(S'piano'
F6.2599999999999998
tp2930
a(S'ear'
F6.2599999999999998
tp2931
a(S'nose'
F6.2599999999999998
tp2932
a(S'prune'
F6.2599999999999998
tp2933
a(S'liquor'
F6.2599999999999998
tp2934
a(S'water'
F6.2699999999999996
tp2935
a(S'window'
F6.2699999999999996
tp2936
a(S'seashore'
F6.2800000000000002
tp2937
a(S'cash'
F6.2800000000000002
tp2938
a(S'parrot'
F6.2800000000000002
tp2939
a(S'jungle'
F6.2800000000000002
tp2940
a(S'skirt'
F6.2800000000000002
tp2941
a(S'artery'
F6.2800000000000002
tp2942
a(S'eye'
F6.2800000000000002
tp2943
a(S'chlorine'
F6.2800000000000002
tp2944
a(S'taxi'
F6.2800000000000002
tp2945
a(S'cauliflower'
F6.2800000000000002
tp2946
a(S'feet'
F6.2800000000000002
tp2947
a(S'fig'
F6.2800000000000002
tp2948
a(S'cotton'
F6.2800000000000002
tp2949
a(S'dictionary'
F6.29
tp2950
a(S'pool'
F6.29
tp2951
a(S'mop'
F6.29
tp2952
a(S'ballot'
F6.29
tp2953
a(S'banana'
F6.29
tp2954
a(S'trophy'
F6.29
tp2955
a(S'stamp'
F6.2999999999999998
tp2956
a(S'pear'
F6.2999999999999998
tp2957
a(S'bag'
F6.2999999999999998
tp2958
a(S'cookie'
F6.2999999999999998
tp2959
a(S'diaper'
F6.2999999999999998
tp2960
a(S'ribbon'
F6.2999999999999998
tp2961
a(S'celery'
F6.2999999999999998
tp2962
a(S'mammal'
F6.3099999999999996
tp2963
a(S'glass'
F6.3099999999999996
tp2964
a(S'airport'
F6.3099999999999996
tp2965
a(S'shortcake'
F6.3099999999999996
tp2966
a(S'jacket'
F6.3099999999999996
tp2967
a(S'drawer'
F6.3099999999999996
tp2968
a(S'razor'
F6.3200000000000003
tp2969
a(S'officer'
F6.3200000000000003
tp2970
a(S'cracker'
F6.3200000000000003
tp2971
a(S'cab'
F6.3200000000000003
tp2972
a(S'robin'
F6.3200000000000003
tp2973
a(S'earthquake'
F6.3200000000000003
tp2974
a(S'stone'
F6.3200000000000003
tp2975
a(S'sculpture'
F6.3300000000000001
tp2976
a(S'mechanic'
F6.3300000000000001
tp2977
a(S'wasp'
F6.3300000000000001
tp2978
a(S'cereal'
F6.3300000000000001
tp2979
a(S'bicycle'
F6.3300000000000001
tp2980
a(S'boat'
F6.3300000000000001
tp2981
a(S'cashew'
F6.3300000000000001
tp2982
a(S'banjo'
F6.3300000000000001
tp2983
a(S'puppy'
F6.3399999999999999
tp2984
a(S'sheriff'
F6.3399999999999999
tp2985
a(S'haystack'
F6.3399999999999999
tp2986
a(S'car'
F6.3499999999999996
tp2987
a(S'singer'
F6.3499999999999996
tp2988
a(S'dryer'
F6.3499999999999996
tp2989
a(S'sugar'
F6.3499999999999996
tp2990
a(S'jeans'
F6.3499999999999996
tp2991
a(S'bandage'
F6.3499999999999996
tp2992
a(S'boss'
F6.3499999999999996
tp2993
a(S'committee'
F6.3499999999999996
tp2994
a(S'gin'
F6.3499999999999996
tp2995
a(S'poet'
F6.3499999999999996
tp2996
a(S'lice'
F6.3600000000000003
tp2997
a(S'mattress'
F6.3600000000000003
tp2998
a(S'cop'
F6.3600000000000003
tp2999
a(S'guys'
F6.3600000000000003
tp3000
a(S'rope'
F6.3600000000000003
tp3001
a(S'co-pilot'
F6.3600000000000003
tp3002
a(S'bridge'
F6.3600000000000003
tp3003
a(S'blouse'
F6.3600000000000003
tp3004
a(S'mitten'
F6.3700000000000001
tp3005
a(S'ruler'
F6.3700000000000001
tp3006
a(S'sandwich'
F6.3700000000000001
tp3007
a(S'human'
F6.3700000000000001
tp3008
a(S'forest'
F6.3700000000000001
tp3009
a(S'hornet'
F6.3700000000000001
tp3010
a(S'student'
F6.3799999999999999
tp3011
a(S'slave'
F6.3799999999999999
tp3012
a(S'guy'
F6.3799999999999999
tp3013
a(S'bacteria'
F6.3799999999999999
tp3014
a(S'teacher'
F6.3799999999999999
tp3015
a(S'walnut'
F6.3799999999999999
tp3016
a(S'weapon'
F6.3799999999999999
tp3017
a(S'mask'
F6.3799999999999999
tp3018
a(S'son'
F6.3799999999999999
tp3019
a(S'acrobat'
F6.3799999999999999
tp3020
a(S'banker'
F6.3799999999999999
tp3021
a(S'queen'
F6.3799999999999999
tp3022
a(S'hose'
F6.3899999999999997
tp3023
a(S'hay'
F6.3899999999999997
tp3024
a(S'flour'
F6.3899999999999997
tp3025
a(S'saltine'
F6.4000000000000004
tp3026
a(S'bug'
F6.4000000000000004
tp3027
a(S'tornado'
F6.4000000000000004
tp3028
a(S'television'
F6.4000000000000004
tp3029
a(S'wine'
F6.4000000000000004
tp3030
a(S'galoshes'
p3031
F6.4000000000000004
tp3032
a(S'stereo'
F6.4000000000000004
tp3033
a(S'island'
F6.4000000000000004
tp3034
a(S'nightgown'
F6.4000000000000004
tp3035
a(S'bull'
F6.4000000000000004
tp3036
a(S'mom'
F6.4000000000000004
tp3037
a(S'turtle'
F6.4000000000000004
tp3038
a(S'fist'
F6.4000000000000004
tp3039
a(S'toilet'
F6.4000000000000004
tp3040
a(S'ape'
F6.4000000000000004
tp3041
a(S'bar'
F6.4000000000000004
tp3042
a(S'monarch'
F6.4000000000000004
tp3043
a(S'steam'
F6.4100000000000001
tp3044
a(S'tangerine'
F6.4100000000000001
tp3045
a(S'beet'
F6.4100000000000001
tp3046
a(S'reef'
F6.4100000000000001
tp3047
a(S'chef'
F6.4100000000000001
tp3048
a(S'colt'
F6.4100000000000001
tp3049
a(S'gentleman'
F6.4199999999999999
tp3050
a(S'roach'
F6.4199999999999999
tp3051
a(S'cardboard'
F6.4199999999999999
tp3052
a(S'cement'
F6.4199999999999999
tp3053
a(S'pizza'
F6.4199999999999999
tp3054
a(S'pumpkin'
F6.4199999999999999
tp3055
a(S'screw'
F6.4199999999999999
tp3056
a(S'farmer'
F6.4199999999999999
tp3057
a(S'seagull'
F6.4299999999999997
tp3058
a(S'dessert'
F6.4299999999999997
tp3059
a(S'coffee'
F6.4299999999999997
tp3060
a(S'skeleton'
F6.4299999999999997
tp3061
a(S'saloon'
F6.4299999999999997
tp3062
a(S'hanger'
F6.4299999999999997
tp3063
a(S'pelican'
F6.4400000000000004
tp3064
a(S'skunk'
F6.4400000000000004
tp3065
a(S'appliance'
F6.4500000000000002
tp3066
a(S'alligator'
F6.4500000000000002
tp3067
a(S'proprietor'
F6.4500000000000002
tp3068
a(S'radio'
F6.4500000000000002
tp3069
a(S'crib'
F6.4500000000000002
tp3070
a(S'wrist'
F6.4500000000000002
tp3071
a(S'prisoner'
F6.4500000000000002
tp3072
a(S'instructor'
F6.4500000000000002
tp3073
a(S'potatoes'
F6.4500000000000002
tp3074
a(S'nursery'
F6.4500000000000002
tp3075
a(S'vehicle'
F6.4500000000000002
tp3076
a(S'bacon'
F6.46
tp3077
a(S'steak'
F6.4699999999999998
tp3078
a(S'penguin'
F6.4699999999999998
tp3079
a(S'calendar'
F6.4800000000000004
tp3080
a(S'avenue'
F6.4800000000000004
tp3081
a(S'volleyball'
F6.4800000000000004
tp3082
a(S'snake'
F6.4800000000000004
tp3083
a(S'threshold'
F6.4800000000000004
tp3084
a(S'scientist'
F6.4800000000000004
tp3085
a(S'thicket'
F6.4900000000000002
tp3086
a(S'cucumber'
F6.4900000000000002
tp3087
a(S'castle'
F6.5
tp3088
a(S'playground'
F6.5
tp3089
a(S'lips'
F6.5
tp3090
a(S'pouch'
F6.5
tp3091
a(S'beaver'
F6.5
tp3092
a(S'canoe'
F6.5
tp3093
a(S'lip'
F6.5
tp3094
a(S'pony'
F6.5099999999999998
tp3095
a(S'beast'
F6.5099999999999998
tp3096
a(S'person'
F6.5099999999999998
tp3097
a(S'snorkel'
F6.5099999999999998
tp3098
a(S'ice'
F6.5099999999999998
tp3099
a(S'maiden'
F6.5199999999999996
tp3100
a(S'professor'
F6.5199999999999996
tp3101
a(S'hurricane'
F6.5199999999999996
tp3102
a(S'zebra'
F6.5199999999999996
tp3103
a(S'bell'
F6.5199999999999996
tp3104
a(S'muffin'
F6.5300000000000002
tp3105
a(S'bus'
F6.5300000000000002
tp3106
a(S'seatbelt'
F6.5300000000000002
tp3107
a(S'tuna'
F6.5300000000000002
tp3108
a(S'buffalo'
F6.5300000000000002
tp3109
a(S'army'
F6.5300000000000002
tp3110
a(S'lily'
F6.5300000000000002
tp3111
a(S'pecan'
F6.5300000000000002
tp3112
a(S'fabric'
F6.5499999999999998
tp3113
a(S'blood'
F6.5499999999999998
tp3114
a(S'ox'
F6.5499999999999998
tp3115
a(S'candy'
F6.5599999999999996
tp3116
a(S'hen'
F6.5599999999999996
tp3117
a(S'grasshopper'
F6.5599999999999996
tp3118
a(S'newspaper'
F6.5599999999999996
tp3119
a(S'pancakes'
F6.5599999999999996
tp3120
a(S'ashtray'
F6.5599999999999996
tp3121
a(S'stewardess'
F6.5700000000000003
tp3122
a(S'orthodontist'
F6.5700000000000003
tp3123
a(S'bronze'
F6.5700000000000003
tp3124
a(S'fountain'
F6.5800000000000001
tp3125
a(S'body'
F6.5800000000000001
tp3126
a(S'tomato'
F6.5800000000000001
tp3127
a(S'utensil'
F6.5800000000000001
tp3128
a(S'thumb'
F6.5800000000000001
tp3129
a(S'painter'
F6.5899999999999999
tp3130
a(S'physician'
F6.5899999999999999
tp3131
a(S'bed'
F6.5899999999999999
tp3132
a(S'pistol'
F6.5899999999999999
tp3133
a(S'track'
F6.5899999999999999
tp3134
a(S'priest'
F6.5899999999999999
tp3135
a(S'rattle'
F6.5999999999999996
tp3136
a(S'popcorn'
F6.5999999999999996
tp3137
a(S'pudding'
F6.5999999999999996
tp3138
a(S'raccoon'
F6.5999999999999996
tp3139
a(S'prison'
F6.6200000000000001
tp3140
a(S'tree'
F6.6200000000000001
tp3141
a(S'blossom'
F6.6200000000000001
tp3142
a(S'flood'
F6.6200000000000001
tp3143
a(S'swamp'
F6.6200000000000001
tp3144
a(S'cougar'
F6.6299999999999999
tp3145
a(S'goose'
F6.6299999999999999
tp3146
a(S'sneaker'
F6.6299999999999999
tp3147
a(S'shoes'
F6.6299999999999999
tp3148
a(S'feather'
F6.6299999999999999
tp3149
a(S'clothes'
F6.6299999999999999
tp3150
a(S'cell'
F6.6299999999999999
tp3151
a(S'monk'
F6.6299999999999999
tp3152
a(S'turkey'
F6.6299999999999999
tp3153
a(S'kitchen'
F6.6299999999999999
tp3154
a(S'uniform'
F6.6399999999999997
tp3155
a(S'hot dogs'
F6.6399999999999997
tp3156
a(S'ax'
F6.6500000000000004
tp3157
a(S'waiter'
F6.6500000000000004
tp3158
a(S'reptile'
F6.6500000000000004
tp3159
a(S'valley'
F6.6600000000000001
tp3160
a(S'milk'
F6.6600000000000001
tp3161
a(S'groceries'
F6.6699999999999999
tp3162
a(S'field'
F6.6699999999999999
tp3163
a(S'donkey'
F6.6699999999999999
tp3164
a(S'dust'
F6.6699999999999999
tp3165
a(S'barn'
F6.6799999999999997
tp3166
a(S'lime'
F6.6900000000000004
tp3167
a(S'meadow'
F6.6900000000000004
tp3168
a(S'village'
F6.6900000000000004
tp3169
a(S'policeman'
F6.6900000000000004
tp3170
a(S'fur'
F6.6900000000000004
tp3171
a(S'shore'
F6.6900000000000004
tp3172
a(S'police'
F6.6900000000000004
tp3173
a(S'temple'
F6.6900000000000004
tp3174
a(S'octopus'
F6.6900000000000004
tp3175
a(S'calculator'
F6.7000000000000002
tp3176
a(S'carriage'
F6.71
tp3177
a(S'hall'
F6.7199999999999998
tp3178
a(S'guitar'
F6.7300000000000004
tp3179
a(S'foam'
F6.7300000000000004
tp3180
a(S'bench'
F6.7300000000000004
tp3181
a(S'thigh'
F6.7400000000000002
tp3182
a(S'picture'
F6.75
tp3183
a(S'suds'
F6.75
tp3184
a(S'machine'
F6.75
tp3185
a(S'animals'
F6.75
tp3186
a(S'infant'
F6.7599999999999998
tp3187
a(S'railroad'
F6.7599999999999998
tp3188
a(S'vegetable'
F6.7599999999999998
tp3189
a(S'nun'
F6.7599999999999998
tp3190
a(S'metal'
F6.7599999999999998
tp3191
a(S'sauce'
F6.7599999999999998
tp3192
a(S'dish'
F6.7699999999999996
tp3193
a(S'cap'
F6.7699999999999996
tp3194
a(S'knee'
F6.7800000000000002
tp3195
a(S'slacks'
F6.7800000000000002
tp3196
a(S'sweater'
F6.7800000000000002
tp3197
a(S'seat'
F6.79
tp3198
a(S'cattle'
F6.79
tp3199
a(S'prairie'
F6.7999999999999998
tp3200
a(S'breast'
F6.7999999999999998
tp3201
a(S'hospital'
F6.7999999999999998
tp3202
a(S'missile'
F6.7999999999999998
tp3203
a(S'fireman'
F6.7999999999999998
tp3204
a(S'hotel'
F6.7999999999999998
tp3205
a(S'inn'
F6.7999999999999998
tp3206
a(S'curtain'
F6.8200000000000003
tp3207
a(S'girl'
F6.8300000000000001
tp3208
a(S'hound'
F6.8300000000000001
tp3209
a(S'towel'
F6.8300000000000001
tp3210
a(S'volcano'
F6.8300000000000001
tp3211
a(S'cellar'
F6.8300000000000001
tp3212
a(S'salad'
F6.8300000000000001
tp3213
a(S'wigwam'
F6.8300000000000001
tp3214
a(S'panther'
F6.8300000000000001
tp3215
a(S'basement'
F6.8300000000000001
tp3216
a(S'airplane'
F6.8300000000000001
tp3217
a(S'abdomen'
F6.8300000000000001
tp3218
a(S'restaurant'
F6.8300000000000001
tp3219
a(S'geese'
F6.8300000000000001
tp3220
a(S'furniture'
F6.8300000000000001
tp3221
a(S'log'
F6.8600000000000003
tp3222
a(S'keg'
F6.8700000000000001
tp3223
a(S'thorn'
F6.8700000000000001
tp3224
a(S'alcohol'
F6.8700000000000001
tp3225
a(S'auto'
F6.8700000000000001
tp3226
a(S'board'
F6.8700000000000001
tp3227
a(S'factory'
F6.8700000000000001
tp3228
a(S'woods'
F6.8700000000000001
tp3229
a(S'piston'
F6.8700000000000001
tp3230
a(S'corpse'
F6.8899999999999997
tp3231
a(S'claw'
F6.8899999999999997
tp3232
a(S'spinach'
F6.9000000000000004
tp3233
a(S'pipe'
F6.9000000000000004
tp3234
a(S'dove'
F6.9000000000000004
tp3235
a(S'flesh'
F6.9000000000000004
tp3236
a(S'pig'
F6.9199999999999999
tp3237
a(S'glacier'
p3238
F6.9299999999999997
tp3239
a(S'boys'
F6.9299999999999997
tp3240
a(S'meat'
F6.9299999999999997
tp3241
a(S'lemonade'
F6.9299999999999997
tp3242
a(S'cord'
F6.9299999999999997
tp3243
a(S'cane'
F6.9299999999999997
tp3244
a(S'tweezers'
F6.9299999999999997
tp3245
a(S'bottle'
F6.9400000000000004
tp3246
a(S'elbow'
F6.9400000000000004
tp3247
a(S'clock'
F6.9400000000000004
tp3248
a(S'cradle'
F6.9400000000000004
tp3249
a(S'harp'
p3250
F6.9400000000000004
tp3251
a(S'nails'
F6.96
tp3252
a(S'cabin'
F6.96
tp3253
a(S'caterpillar'
F6.96
tp3254
a(S'skin'
F6.96
tp3255
a(S'tower'
F6.96
tp3256
a(S'mosquito'
F6.96
tp3257
a(S'fireplace'
F6.96
tp3258
a(S'boulder'
F6.96
tp3259
a(S'frog'
F6.96
tp3260
a(S'raisin'
F6.96
tp3261
a(S'umbrella'
F7
tp3262
a(S'trumpet'
F7
tp3263
a(S'truck'
F7
tp3264
a(S'bullet'
F7
tp3265
a(S'flask'
F7
tp3266
a(S'refrigerator'
F7
tp3267
a(S'fox'
F7
tp3268
a(S'arrow'
F7
tp3269
a(S'macaroni'
F7
tp3270
a(S'elephant'
F7
tp3271
a(S'ambulance'
F7
tp3272
a(S'ankle'
F7
tp3273
a(S'trees'
F7
tp3274
a(S'strawberry'
F7
tp3275
a(S'ticket'
F7
tp3276
a(S'apple'
F7
tp3277
a(S'potato'
F7
tp3278
a(S'pencil'
F7
tp3279
a(S'leopard'
F7
tp3280
a(S'automobile'
F7
tp3281
a.